
shell:	file format mach-o arm64

Disassembly of section __TEXT,__text:

0000000100001dd8 <_init_hist>:
100001dd8: d10043ff    	sub	sp, sp, #16
100001ddc: f90007e0    	str	x0, [sp, #8]
100001de0: f94007e8    	ldr	x8, [sp, #8]
100001de4: f900051f    	str	xzr, [x8, #8]
100001de8: f94007e8    	ldr	x8, [sp, #8]
100001dec: b900051f    	str	wzr, [x8, #4]
100001df0: f94007e9    	ldr	x9, [sp, #8]
100001df4: 12800008    	mov	w8, #-1
100001df8: b9000128    	str	w8, [x9]
100001dfc: 910043ff    	add	sp, sp, #16
100001e00: d65f03c0    	ret

0000000100001e04 <_add>:
100001e04: d100c3ff    	sub	sp, sp, #48
100001e08: a9027bfd    	stp	x29, x30, [sp, #32]
100001e0c: 910083fd    	add	x29, sp, #32
100001e10: f81f83a0    	stur	x0, [x29, #-8]
100001e14: f9000be1    	str	x1, [sp, #16]
100001e18: f85f83a8    	ldur	x8, [x29, #-8]
100001e1c: f1000108    	subs	x8, x8, #0
100001e20: 1a9f07e8    	cset	w8, ne
100001e24: 370000a8    	tbnz	w8, #0, 0x100001e38 <_add+0x34>
100001e28: 14000001    	b	0x100001e2c <_add+0x28>
100001e2c: f85f83a0    	ldur	x0, [x29, #-8]
100001e30: 97ffffea    	bl	0x100001dd8 <_init_hist>
100001e34: 14000001    	b	0x100001e38 <_add+0x34>
100001e38: f9400be8    	ldr	x8, [sp, #16]
100001e3c: f1000108    	subs	x8, x8, #0
100001e40: 1a9f17e8    	cset	w8, eq
100001e44: 37000a68    	tbnz	w8, #0, 0x100001f90 <_add+0x18c>
100001e48: 14000001    	b	0x100001e4c <_add+0x48>
100001e4c: f85f83a8    	ldur	x8, [x29, #-8]
100001e50: f9400508    	ldr	x8, [x8, #8]
100001e54: f1000108    	subs	x8, x8, #0
100001e58: 1a9f17e8    	cset	w8, eq
100001e5c: 37000468    	tbnz	w8, #0, 0x100001ee8 <_add+0xe4>
100001e60: 14000001    	b	0x100001e64 <_add+0x60>
100001e64: f85f83a8    	ldur	x8, [x29, #-8]
100001e68: b9400508    	ldr	w8, [x8, #4]
100001e6c: 71000108    	subs	w8, w8, #0
100001e70: 1a9fc7e8    	cset	w8, le
100001e74: 370003a8    	tbnz	w8, #0, 0x100001ee8 <_add+0xe4>
100001e78: 14000001    	b	0x100001e7c <_add+0x78>
100001e7c: f85f83a8    	ldur	x8, [x29, #-8]
100001e80: f9400508    	ldr	x8, [x8, #8]
100001e84: f85f83a9    	ldur	x9, [x29, #-8]
100001e88: b9400529    	ldr	w9, [x9, #4]
100001e8c: 71000529    	subs	w9, w9, #1
100001e90: f869d900    	ldr	x0, [x8, w9, sxtw #3]
100001e94: f9400be1    	ldr	x1, [sp, #16]
100001e98: 940006c7    	bl	0x1000039b4 <_waitpid+0x1000039b4>
100001e9c: 71000008    	subs	w8, w0, #0
100001ea0: 1a9f17e8    	cset	w8, eq
100001ea4: 37000208    	tbnz	w8, #0, 0x100001ee4 <_add+0xe0>
100001ea8: 14000001    	b	0x100001eac <_add+0xa8>
100001eac: f85f83a8    	ldur	x8, [x29, #-8]
100001eb0: f9400500    	ldr	x0, [x8, #8]
100001eb4: f85f83a8    	ldur	x8, [x29, #-8]
100001eb8: b9400509    	ldr	w9, [x8, #4]
100001ebc: 11000529    	add	w9, w9, #1
100001ec0: b9000509    	str	w9, [x8, #4]
100001ec4: aa0903e8    	mov	x8, x9
100001ec8: 93407d09    	sxtw	x9, w8
100001ecc: d2800108    	mov	x8, #8
100001ed0: 9b097d01    	mul	x1, x8, x9
100001ed4: 940006b5    	bl	0x1000039a8 <_waitpid+0x1000039a8>
100001ed8: f85f83a8    	ldur	x8, [x29, #-8]
100001edc: f9000500    	str	x0, [x8, #8]
100001ee0: 14000001    	b	0x100001ee4 <_add+0xe0>
100001ee4: 14000009    	b	0x100001f08 <_add+0x104>
100001ee8: f85f83a9    	ldur	x9, [x29, #-8]
100001eec: 52800028    	mov	w8, #1
100001ef0: b9000528    	str	w8, [x9, #4]
100001ef4: d2800100    	mov	x0, #8
100001ef8: 9400069d    	bl	0x10000396c <_waitpid+0x10000396c>
100001efc: f85f83a8    	ldur	x8, [x29, #-8]
100001f00: f9000500    	str	x0, [x8, #8]
100001f04: 14000001    	b	0x100001f08 <_add+0x104>
100001f08: f9400be0    	ldr	x0, [sp, #16]
100001f0c: 940006ad    	bl	0x1000039c0 <_waitpid+0x1000039c0>
100001f10: d2800028    	mov	x8, #1
100001f14: 91000409    	add	x9, x0, #1
100001f18: 9b097d00    	mul	x0, x8, x9
100001f1c: 94000694    	bl	0x10000396c <_waitpid+0x10000396c>
100001f20: f85f83a8    	ldur	x8, [x29, #-8]
100001f24: f9400508    	ldr	x8, [x8, #8]
100001f28: f85f83a9    	ldur	x9, [x29, #-8]
100001f2c: b9400529    	ldr	w9, [x9, #4]
100001f30: 71000529    	subs	w9, w9, #1
100001f34: f829d900    	str	x0, [x8, w9, sxtw #3]
100001f38: f85f83a8    	ldur	x8, [x29, #-8]
100001f3c: f9400508    	ldr	x8, [x8, #8]
100001f40: f85f83a9    	ldur	x9, [x29, #-8]
100001f44: b9400529    	ldr	w9, [x9, #4]
100001f48: 71000529    	subs	w9, w9, #1
100001f4c: f869d900    	ldr	x0, [x8, w9, sxtw #3]
100001f50: f9400be1    	ldr	x1, [sp, #16]
100001f54: 92800002    	mov	x2, #-1
100001f58: 94000661    	bl	0x1000038dc <_waitpid+0x1000038dc>
100001f5c: f85f83a8    	ldur	x8, [x29, #-8]
100001f60: f9400508    	ldr	x8, [x8, #8]
100001f64: f85f83a9    	ldur	x9, [x29, #-8]
100001f68: b9400529    	ldr	w9, [x9, #4]
100001f6c: 71000529    	subs	w9, w9, #1
100001f70: f869d908    	ldr	x8, [x8, w9, sxtw #3]
100001f74: f90007e8    	str	x8, [sp, #8]
100001f78: f9400be0    	ldr	x0, [sp, #16]
100001f7c: 94000691    	bl	0x1000039c0 <_waitpid+0x1000039c0>
100001f80: f94007e8    	ldr	x8, [sp, #8]
100001f84: 8b000108    	add	x8, x8, x0
100001f88: 3900011f    	strb	wzr, [x8]
100001f8c: 14000008    	b	0x100001fac <_add+0x1a8>
100001f90: f0000008    	adrp	x8, 0x100004000 <_add+0x198>
100001f94: f9400d08    	ldr	x8, [x8, #24]
100001f98: f9400100    	ldr	x0, [x8]
100001f9c: d0000001    	adrp	x1, 0x100003000 <_add+0x1a0>
100001fa0: 9129d021    	add	x1, x1, #2676
100001fa4: 94000663    	bl	0x100003930 <_waitpid+0x100003930>
100001fa8: 14000001    	b	0x100001fac <_add+0x1a8>
100001fac: a9427bfd    	ldp	x29, x30, [sp, #32]
100001fb0: 9100c3ff    	add	sp, sp, #48
100001fb4: d65f03c0    	ret

0000000100001fb8 <_upValue>:
100001fb8: d10083ff    	sub	sp, sp, #32
100001fbc: a9017bfd    	stp	x29, x30, [sp, #16]
100001fc0: 910043fd    	add	x29, sp, #16
100001fc4: f90003e0    	str	x0, [sp]
100001fc8: f94003e8    	ldr	x8, [sp]
100001fcc: f1000108    	subs	x8, x8, #0
100001fd0: 1a9f17e8    	cset	w8, eq
100001fd4: 370005c8    	tbnz	w8, #0, 0x10000208c <_upValue+0xd4>
100001fd8: 14000001    	b	0x100001fdc <_upValue+0x24>
100001fdc: f94003e8    	ldr	x8, [sp]
100001fe0: b9400508    	ldr	w8, [x8, #4]
100001fe4: 71000108    	subs	w8, w8, #0
100001fe8: 1a9fa7e8    	cset	w8, lt
100001fec: 37000508    	tbnz	w8, #0, 0x10000208c <_upValue+0xd4>
100001ff0: 14000001    	b	0x100001ff4 <_upValue+0x3c>
100001ff4: f94003e8    	ldr	x8, [sp]
100001ff8: b9400108    	ldr	w8, [x8]
100001ffc: 31000508    	adds	w8, w8, #1
100002000: 1a9f07e8    	cset	w8, ne
100002004: 370000e8    	tbnz	w8, #0, 0x100002020 <_upValue+0x68>
100002008: 14000001    	b	0x10000200c <_upValue+0x54>
10000200c: f94003e8    	ldr	x8, [sp]
100002010: b9400508    	ldr	w8, [x8, #4]
100002014: f94003e9    	ldr	x9, [sp]
100002018: b9000128    	str	w8, [x9]
10000201c: 14000001    	b	0x100002020 <_upValue+0x68>
100002020: f94003e8    	ldr	x8, [sp]
100002024: b9400108    	ldr	w8, [x8]
100002028: 71000108    	subs	w8, w8, #0
10000202c: 1a9f17e8    	cset	w8, eq
100002030: 37000108    	tbnz	w8, #0, 0x100002050 <_upValue+0x98>
100002034: 14000001    	b	0x100002038 <_upValue+0x80>
100002038: f94003e8    	ldr	x8, [sp]
10000203c: b9400508    	ldr	w8, [x8, #4]
100002040: 71000108    	subs	w8, w8, #0
100002044: 1a9f07e8    	cset	w8, ne
100002048: 37000108    	tbnz	w8, #0, 0x100002068 <_upValue+0xb0>
10000204c: 14000001    	b	0x100002050 <_upValue+0x98>
100002050: f94003e8    	ldr	x8, [sp]
100002054: b900011f    	str	wzr, [x8]
100002058: b0000008    	adrp	x8, 0x100003000 <_upValue+0xa4>
10000205c: 912b2d08    	add	x8, x8, #2763
100002060: f90007e8    	str	x8, [sp, #8]
100002064: 1400002c    	b	0x100002114 <_upValue+0x15c>
100002068: f94003e8    	ldr	x8, [sp]
10000206c: f9400508    	ldr	x8, [x8, #8]
100002070: f94003ea    	ldr	x10, [sp]
100002074: b9400149    	ldr	w9, [x10]
100002078: 71000529    	subs	w9, w9, #1
10000207c: b9000149    	str	w9, [x10]
100002080: f869d908    	ldr	x8, [x8, w9, sxtw #3]
100002084: f90007e8    	str	x8, [sp, #8]
100002088: 14000023    	b	0x100002114 <_upValue+0x15c>
10000208c: d0000008    	adrp	x8, 0x100004000 <_upValue+0xdc>
100002090: f9400d08    	ldr	x8, [x8, #24]
100002094: f9400100    	ldr	x0, [x8]
100002098: b0000001    	adrp	x1, 0x100003000 <_upValue+0xe4>
10000209c: 912b3421    	add	x1, x1, #2765
1000020a0: 94000624    	bl	0x100003930 <_waitpid+0x100003930>
1000020a4: f94003e8    	ldr	x8, [sp]
1000020a8: f1000108    	subs	x8, x8, #0
1000020ac: 1a9f07e8    	cset	w8, ne
1000020b0: 370000c8    	tbnz	w8, #0, 0x1000020c8 <_upValue+0x110>
1000020b4: 14000001    	b	0x1000020b8 <_upValue+0x100>
1000020b8: b0000000    	adrp	x0, 0x100003000 <_upValue+0x104>
1000020bc: 912be800    	add	x0, x0, #2810
1000020c0: 94000637    	bl	0x10000399c <_waitpid+0x10000399c>
1000020c4: 14000012    	b	0x10000210c <_upValue+0x154>
1000020c8: f94003e8    	ldr	x8, [sp]
1000020cc: f9400508    	ldr	x8, [x8, #8]
1000020d0: f1000108    	subs	x8, x8, #0
1000020d4: 1a9f17e8    	cset	w8, eq
1000020d8: 37000108    	tbnz	w8, #0, 0x1000020f8 <_upValue+0x140>
1000020dc: 14000001    	b	0x1000020e0 <_upValue+0x128>
1000020e0: f94003e8    	ldr	x8, [sp]
1000020e4: b9400508    	ldr	w8, [x8, #4]
1000020e8: 71000108    	subs	w8, w8, #0
1000020ec: 1a9fd7e8    	cset	w8, gt
1000020f0: 370000c8    	tbnz	w8, #0, 0x100002108 <_upValue+0x150>
1000020f4: 14000001    	b	0x1000020f8 <_upValue+0x140>
1000020f8: b0000000    	adrp	x0, 0x100003000 <_upValue+0x144>
1000020fc: 912c9000    	add	x0, x0, #2852
100002100: 94000627    	bl	0x10000399c <_waitpid+0x10000399c>
100002104: 14000001    	b	0x100002108 <_upValue+0x150>
100002108: 14000001    	b	0x10000210c <_upValue+0x154>
10000210c: f90007ff    	str	xzr, [sp, #8]
100002110: 14000001    	b	0x100002114 <_upValue+0x15c>
100002114: f94007e0    	ldr	x0, [sp, #8]
100002118: a9417bfd    	ldp	x29, x30, [sp, #16]
10000211c: 910083ff    	add	sp, sp, #32
100002120: d65f03c0    	ret

0000000100002124 <_downValue>:
100002124: d10083ff    	sub	sp, sp, #32
100002128: a9017bfd    	stp	x29, x30, [sp, #16]
10000212c: 910043fd    	add	x29, sp, #16
100002130: f90003e0    	str	x0, [sp]
100002134: f94003e8    	ldr	x8, [sp]
100002138: f1000108    	subs	x8, x8, #0
10000213c: 1a9f17e8    	cset	w8, eq
100002140: 37000648    	tbnz	w8, #0, 0x100002208 <_downValue+0xe4>
100002144: 14000001    	b	0x100002148 <_downValue+0x24>
100002148: f94003e8    	ldr	x8, [sp]
10000214c: b9400508    	ldr	w8, [x8, #4]
100002150: 71000108    	subs	w8, w8, #0
100002154: 1a9fa7e8    	cset	w8, lt
100002158: 37000588    	tbnz	w8, #0, 0x100002208 <_downValue+0xe4>
10000215c: 14000001    	b	0x100002160 <_downValue+0x3c>
100002160: f94003e8    	ldr	x8, [sp]
100002164: b9400108    	ldr	w8, [x8]
100002168: 31000508    	adds	w8, w8, #1
10000216c: 1a9f07e8    	cset	w8, ne
100002170: 370000e8    	tbnz	w8, #0, 0x10000218c <_downValue+0x68>
100002174: 14000001    	b	0x100002178 <_downValue+0x54>
100002178: f94003e8    	ldr	x8, [sp]
10000217c: b9400508    	ldr	w8, [x8, #4]
100002180: f94003e9    	ldr	x9, [sp]
100002184: b9000128    	str	w8, [x9]
100002188: 14000001    	b	0x10000218c <_downValue+0x68>
10000218c: f94003e8    	ldr	x8, [sp]
100002190: b9400108    	ldr	w8, [x8]
100002194: f94003e9    	ldr	x9, [sp]
100002198: b9400529    	ldr	w9, [x9, #4]
10000219c: 6b090108    	subs	w8, w8, w9
1000021a0: 1a9f17e8    	cset	w8, eq
1000021a4: 37000108    	tbnz	w8, #0, 0x1000021c4 <_downValue+0xa0>
1000021a8: 14000001    	b	0x1000021ac <_downValue+0x88>
1000021ac: f94003e8    	ldr	x8, [sp]
1000021b0: b9400508    	ldr	w8, [x8, #4]
1000021b4: 71000108    	subs	w8, w8, #0
1000021b8: 1a9f07e8    	cset	w8, ne
1000021bc: 37000128    	tbnz	w8, #0, 0x1000021e0 <_downValue+0xbc>
1000021c0: 14000001    	b	0x1000021c4 <_downValue+0xa0>
1000021c4: f94003e9    	ldr	x9, [sp]
1000021c8: 12800008    	mov	w8, #-1
1000021cc: b9000128    	str	w8, [x9]
1000021d0: b0000008    	adrp	x8, 0x100003000 <_downValue+0xb0>
1000021d4: 912b2d08    	add	x8, x8, #2763
1000021d8: f90007e8    	str	x8, [sp, #8]
1000021dc: 1400002d    	b	0x100002290 <_downValue+0x16c>
1000021e0: f94003e8    	ldr	x8, [sp]
1000021e4: f9400508    	ldr	x8, [x8, #8]
1000021e8: f94003eb    	ldr	x11, [sp]
1000021ec: b9800169    	ldrsw	x9, [x11]
1000021f0: aa0903ea    	mov	x10, x9
1000021f4: 1100054a    	add	w10, w10, #1
1000021f8: b900016a    	str	w10, [x11]
1000021fc: f8697908    	ldr	x8, [x8, x9, lsl #3]
100002200: f90007e8    	str	x8, [sp, #8]
100002204: 14000023    	b	0x100002290 <_downValue+0x16c>
100002208: d0000008    	adrp	x8, 0x100004000 <_downValue+0xec>
10000220c: f9400d08    	ldr	x8, [x8, #24]
100002210: f9400100    	ldr	x0, [x8]
100002214: b0000001    	adrp	x1, 0x100003000 <_downValue+0xf4>
100002218: 912d1c21    	add	x1, x1, #2887
10000221c: 940005c5    	bl	0x100003930 <_waitpid+0x100003930>
100002220: f94003e8    	ldr	x8, [sp]
100002224: f1000108    	subs	x8, x8, #0
100002228: 1a9f07e8    	cset	w8, ne
10000222c: 370000c8    	tbnz	w8, #0, 0x100002244 <_downValue+0x120>
100002230: 14000001    	b	0x100002234 <_downValue+0x110>
100002234: b0000000    	adrp	x0, 0x100003000 <_downValue+0x114>
100002238: 912be800    	add	x0, x0, #2810
10000223c: 940005d8    	bl	0x10000399c <_waitpid+0x10000399c>
100002240: 14000012    	b	0x100002288 <_downValue+0x164>
100002244: f94003e8    	ldr	x8, [sp]
100002248: f9400508    	ldr	x8, [x8, #8]
10000224c: f1000108    	subs	x8, x8, #0
100002250: 1a9f17e8    	cset	w8, eq
100002254: 37000108    	tbnz	w8, #0, 0x100002274 <_downValue+0x150>
100002258: 14000001    	b	0x10000225c <_downValue+0x138>
10000225c: f94003e8    	ldr	x8, [sp]
100002260: b9400508    	ldr	w8, [x8, #4]
100002264: 71000108    	subs	w8, w8, #0
100002268: 1a9fd7e8    	cset	w8, gt
10000226c: 370000c8    	tbnz	w8, #0, 0x100002284 <_downValue+0x160>
100002270: 14000001    	b	0x100002274 <_downValue+0x150>
100002274: b0000000    	adrp	x0, 0x100003000 <_downValue+0x154>
100002278: 912c9000    	add	x0, x0, #2852
10000227c: 940005c8    	bl	0x10000399c <_waitpid+0x10000399c>
100002280: 14000001    	b	0x100002284 <_downValue+0x160>
100002284: 14000001    	b	0x100002288 <_downValue+0x164>
100002288: f90007ff    	str	xzr, [sp, #8]
10000228c: 14000001    	b	0x100002290 <_downValue+0x16c>
100002290: f94007e0    	ldr	x0, [sp, #8]
100002294: a9417bfd    	ldp	x29, x30, [sp, #16]
100002298: 910083ff    	add	sp, sp, #32
10000229c: d65f03c0    	ret

00000001000022a0 <_delete_line_stack>:
1000022a0: d10143ff    	sub	sp, sp, #80
1000022a4: a9047bfd    	stp	x29, x30, [sp, #64]
1000022a8: 910103fd    	add	x29, sp, #64
1000022ac: f81f83a0    	stur	x0, [x29, #-8]
1000022b0: f81f03a1    	stur	x1, [x29, #-16]
1000022b4: f85f03a8    	ldur	x8, [x29, #-16]
1000022b8: b9400108    	ldr	w8, [x8]
1000022bc: 71000108    	subs	w8, w8, #0
1000022c0: 1a9fc7e8    	cset	w8, le
1000022c4: 370000e8    	tbnz	w8, #0, 0x1000022e0 <_delete_line_stack+0x40>
1000022c8: 14000001    	b	0x1000022cc <_delete_line_stack+0x2c>
1000022cc: f85f03a9    	ldur	x9, [x29, #-16]
1000022d0: b9400128    	ldr	w8, [x9]
1000022d4: 71000508    	subs	w8, w8, #1
1000022d8: b9000128    	str	w8, [x9]
1000022dc: 14000001    	b	0x1000022e0 <_delete_line_stack+0x40>
1000022e0: f85f03a8    	ldur	x8, [x29, #-16]
1000022e4: b9400108    	ldr	w8, [x8]
1000022e8: b81ec3a8    	stur	w8, [x29, #-20]
1000022ec: f85f83a8    	ldur	x8, [x29, #-8]
1000022f0: f1000108    	subs	x8, x8, #0
1000022f4: 1a9f17e8    	cset	w8, eq
1000022f8: 370001c8    	tbnz	w8, #0, 0x100002330 <_delete_line_stack+0x90>
1000022fc: 14000001    	b	0x100002300 <_delete_line_stack+0x60>
100002300: b85ec3a8    	ldur	w8, [x29, #-20]
100002304: 71000108    	subs	w8, w8, #0
100002308: 1a9fa7e8    	cset	w8, lt
10000230c: 37000128    	tbnz	w8, #0, 0x100002330 <_delete_line_stack+0x90>
100002310: 14000001    	b	0x100002314 <_delete_line_stack+0x74>
100002314: b85ec3a8    	ldur	w8, [x29, #-20]
100002318: f85f83a9    	ldur	x9, [x29, #-8]
10000231c: b9400929    	ldr	w9, [x9, #8]
100002320: 6b090108    	subs	w8, w8, w9
100002324: 1a9fc7e8    	cset	w8, le
100002328: 37000068    	tbnz	w8, #0, 0x100002334 <_delete_line_stack+0x94>
10000232c: 14000001    	b	0x100002330 <_delete_line_stack+0x90>
100002330: 14000050    	b	0x100002470 <_delete_line_stack+0x1d0>
100002334: b85ec3a8    	ldur	w8, [x29, #-20]
100002338: 71000108    	subs	w8, w8, #0
10000233c: 1a9f07e8    	cset	w8, ne
100002340: 37000128    	tbnz	w8, #0, 0x100002364 <_delete_line_stack+0xc4>
100002344: 14000001    	b	0x100002348 <_delete_line_stack+0xa8>
100002348: f85f83a8    	ldur	x8, [x29, #-8]
10000234c: b9400908    	ldr	w8, [x8, #8]
100002350: 71000108    	subs	w8, w8, #0
100002354: 1a9f07e8    	cset	w8, ne
100002358: 37000068    	tbnz	w8, #0, 0x100002364 <_delete_line_stack+0xc4>
10000235c: 14000001    	b	0x100002360 <_delete_line_stack+0xc0>
100002360: 14000044    	b	0x100002470 <_delete_line_stack+0x1d0>
100002364: b85ec3a8    	ldur	w8, [x29, #-20]
100002368: b81e83a8    	stur	w8, [x29, #-24]
10000236c: f85f83a8    	ldur	x8, [x29, #-8]
100002370: f9400100    	ldr	x0, [x8]
100002374: 94000593    	bl	0x1000039c0 <_waitpid+0x1000039c0>
100002378: b89ec3a8    	ldursw	x8, [x29, #-20]
10000237c: eb080008    	subs	x8, x0, x8
100002380: b81e43a8    	stur	w8, [x29, #-28]
100002384: b89e83a9    	ldursw	x9, [x29, #-24]
100002388: d2800028    	mov	x8, #1
10000238c: f90003e8    	str	x8, [sp]
100002390: 9b097d00    	mul	x0, x8, x9
100002394: 94000576    	bl	0x10000396c <_waitpid+0x10000396c>
100002398: f94003e8    	ldr	x8, [sp]
10000239c: f9000fe0    	str	x0, [sp, #24]
1000023a0: b89e43a9    	ldursw	x9, [x29, #-28]
1000023a4: 9b097d00    	mul	x0, x8, x9
1000023a8: 94000571    	bl	0x10000396c <_waitpid+0x10000396c>
1000023ac: f9000be0    	str	x0, [sp, #16]
1000023b0: f9400fe0    	ldr	x0, [sp, #24]
1000023b4: f85f83a8    	ldur	x8, [x29, #-8]
1000023b8: f9400101    	ldr	x1, [x8]
1000023bc: b89e83a2    	ldursw	x2, [x29, #-24]
1000023c0: 92800003    	mov	x3, #-1
1000023c4: f90007e3    	str	x3, [sp, #8]
1000023c8: 9400053f    	bl	0x1000038c4 <_waitpid+0x1000038c4>
1000023cc: f94007e3    	ldr	x3, [sp, #8]
1000023d0: f9400be0    	ldr	x0, [sp, #16]
1000023d4: f85f83a8    	ldur	x8, [x29, #-8]
1000023d8: f9400108    	ldr	x8, [x8]
1000023dc: b85ec3a9    	ldur	w9, [x29, #-20]
1000023e0: 11000529    	add	w9, w9, #1
1000023e4: 8b29c101    	add	x1, x8, w9, sxtw
1000023e8: b89e43a2    	ldursw	x2, [x29, #-28]
1000023ec: 94000536    	bl	0x1000038c4 <_waitpid+0x1000038c4>
1000023f0: f85f83a8    	ldur	x8, [x29, #-8]
1000023f4: f9400100    	ldr	x0, [x8]
1000023f8: 94000554    	bl	0x100003948 <_waitpid+0x100003948>
1000023fc: b85e83a8    	ldur	w8, [x29, #-24]
100002400: b85e43a9    	ldur	w9, [x29, #-28]
100002404: 0b090109    	add	w9, w8, w9
100002408: aa0903e8    	mov	x8, x9
10000240c: 93407d00    	sxtw	x0, w8
100002410: 94000557    	bl	0x10000396c <_waitpid+0x10000396c>
100002414: f94007e3    	ldr	x3, [sp, #8]
100002418: f85f83a8    	ldur	x8, [x29, #-8]
10000241c: f9000100    	str	x0, [x8]
100002420: f85f83a8    	ldur	x8, [x29, #-8]
100002424: f9400100    	ldr	x0, [x8]
100002428: f9400fe1    	ldr	x1, [sp, #24]
10000242c: b89e83a2    	ldursw	x2, [x29, #-24]
100002430: 94000525    	bl	0x1000038c4 <_waitpid+0x1000038c4>
100002434: f94007e3    	ldr	x3, [sp, #8]
100002438: f85f83a8    	ldur	x8, [x29, #-8]
10000243c: f9400108    	ldr	x8, [x8]
100002440: b89e83a9    	ldursw	x9, [x29, #-24]
100002444: 8b090100    	add	x0, x8, x9
100002448: f9400be1    	ldr	x1, [sp, #16]
10000244c: b89e43a2    	ldursw	x2, [x29, #-28]
100002450: 9400051d    	bl	0x1000038c4 <_waitpid+0x1000038c4>
100002454: f85f83a8    	ldur	x8, [x29, #-8]
100002458: f9400100    	ldr	x0, [x8]
10000245c: 94000559    	bl	0x1000039c0 <_waitpid+0x1000039c0>
100002460: f85f83a9    	ldur	x9, [x29, #-8]
100002464: aa0003e8    	mov	x8, x0
100002468: b9000928    	str	w8, [x9, #8]
10000246c: 14000001    	b	0x100002470 <_delete_line_stack+0x1d0>
100002470: a9447bfd    	ldp	x29, x30, [sp, #64]
100002474: 910143ff    	add	sp, sp, #80
100002478: d65f03c0    	ret

000000010000247c <_write_line_stack>:
10000247c: d10183ff    	sub	sp, sp, #96
100002480: a9057bfd    	stp	x29, x30, [sp, #80]
100002484: 910143fd    	add	x29, sp, #80
100002488: f81f83a0    	stur	x0, [x29, #-8]
10000248c: 381f73a1    	sturb	w1, [x29, #-9]
100002490: f81e83a2    	stur	x2, [x29, #-24]
100002494: f85e83a8    	ldur	x8, [x29, #-24]
100002498: b9400108    	ldr	w8, [x8]
10000249c: b81e43a8    	stur	w8, [x29, #-28]
1000024a0: f85f83a8    	ldur	x8, [x29, #-8]
1000024a4: f1000108    	subs	x8, x8, #0
1000024a8: 1a9f17e8    	cset	w8, eq
1000024ac: 370001c8    	tbnz	w8, #0, 0x1000024e4 <_write_line_stack+0x68>
1000024b0: 14000001    	b	0x1000024b4 <_write_line_stack+0x38>
1000024b4: b85e43a8    	ldur	w8, [x29, #-28]
1000024b8: 71000108    	subs	w8, w8, #0
1000024bc: 1a9fa7e8    	cset	w8, lt
1000024c0: 37000128    	tbnz	w8, #0, 0x1000024e4 <_write_line_stack+0x68>
1000024c4: 14000001    	b	0x1000024c8 <_write_line_stack+0x4c>
1000024c8: b85e43a8    	ldur	w8, [x29, #-28]
1000024cc: f85f83a9    	ldur	x9, [x29, #-8]
1000024d0: b9400929    	ldr	w9, [x9, #8]
1000024d4: 6b090108    	subs	w8, w8, w9
1000024d8: 1a9fc7e8    	cset	w8, le
1000024dc: 37000068    	tbnz	w8, #0, 0x1000024e8 <_write_line_stack+0x6c>
1000024e0: 14000001    	b	0x1000024e4 <_write_line_stack+0x68>
1000024e4: 14000081    	b	0x1000026e8 <_write_line_stack+0x26c>
1000024e8: b85e43a8    	ldur	w8, [x29, #-28]
1000024ec: 71000108    	subs	w8, w8, #0
1000024f0: 1a9f07e8    	cset	w8, ne
1000024f4: 370003c8    	tbnz	w8, #0, 0x10000256c <_write_line_stack+0xf0>
1000024f8: 14000001    	b	0x1000024fc <_write_line_stack+0x80>
1000024fc: f85f83a8    	ldur	x8, [x29, #-8]
100002500: b9400908    	ldr	w8, [x8, #8]
100002504: 71000108    	subs	w8, w8, #0
100002508: 1a9f07e8    	cset	w8, ne
10000250c: 37000308    	tbnz	w8, #0, 0x10000256c <_write_line_stack+0xf0>
100002510: 14000001    	b	0x100002514 <_write_line_stack+0x98>
100002514: f85f83a9    	ldur	x9, [x29, #-8]
100002518: b9400928    	ldr	w8, [x9, #8]
10000251c: 11000508    	add	w8, w8, #1
100002520: b9000928    	str	w8, [x9, #8]
100002524: f85f83a8    	ldur	x8, [x29, #-8]
100002528: b9800909    	ldrsw	x9, [x8, #8]
10000252c: d2800028    	mov	x8, #1
100002530: 9b097d00    	mul	x0, x8, x9
100002534: 9400050e    	bl	0x10000396c <_waitpid+0x10000396c>
100002538: f85f83a8    	ldur	x8, [x29, #-8]
10000253c: f9000100    	str	x0, [x8]
100002540: 385f73a8    	ldurb	w8, [x29, #-9]
100002544: f85f83a9    	ldur	x9, [x29, #-8]
100002548: f9400129    	ldr	x9, [x9]
10000254c: b89e43aa    	ldursw	x10, [x29, #-28]
100002550: 8b0a0129    	add	x9, x9, x10
100002554: 39000128    	strb	w8, [x9]
100002558: f85e83a9    	ldur	x9, [x29, #-24]
10000255c: b9400128    	ldr	w8, [x9]
100002560: 11000508    	add	w8, w8, #1
100002564: b9000128    	str	w8, [x9]
100002568: 14000060    	b	0x1000026e8 <_write_line_stack+0x26c>
10000256c: b85e43a8    	ldur	w8, [x29, #-28]
100002570: b81e03a8    	stur	w8, [x29, #-32]
100002574: f85f83a8    	ldur	x8, [x29, #-8]
100002578: f9400100    	ldr	x0, [x8]
10000257c: 94000511    	bl	0x1000039c0 <_waitpid+0x1000039c0>
100002580: b89e43a8    	ldursw	x8, [x29, #-28]
100002584: eb080009    	subs	x9, x0, x8
100002588: d2800028    	mov	x8, #1
10000258c: f90003e8    	str	x8, [sp]
100002590: 91000529    	add	x9, x9, #1
100002594: b81dc3a9    	stur	w9, [x29, #-36]
100002598: b89e03a9    	ldursw	x9, [x29, #-32]
10000259c: 9b097d00    	mul	x0, x8, x9
1000025a0: 940004f3    	bl	0x10000396c <_waitpid+0x10000396c>
1000025a4: f94003e8    	ldr	x8, [sp]
1000025a8: f90013e0    	str	x0, [sp, #32]
1000025ac: b89dc3a9    	ldursw	x9, [x29, #-36]
1000025b0: 9b097d00    	mul	x0, x8, x9
1000025b4: 940004ee    	bl	0x10000396c <_waitpid+0x10000396c>
1000025b8: f9000fe0    	str	x0, [sp, #24]
1000025bc: f94013e0    	ldr	x0, [sp, #32]
1000025c0: f85f83a8    	ldur	x8, [x29, #-8]
1000025c4: f9400101    	ldr	x1, [x8]
1000025c8: b89e03a2    	ldursw	x2, [x29, #-32]
1000025cc: 92800003    	mov	x3, #-1
1000025d0: f90007e3    	str	x3, [sp, #8]
1000025d4: 940004bc    	bl	0x1000038c4 <_waitpid+0x1000038c4>
1000025d8: f94007e3    	ldr	x3, [sp, #8]
1000025dc: f9400fe0    	ldr	x0, [sp, #24]
1000025e0: f85f83a8    	ldur	x8, [x29, #-8]
1000025e4: f9400108    	ldr	x8, [x8]
1000025e8: b89e43a9    	ldursw	x9, [x29, #-28]
1000025ec: 8b090101    	add	x1, x8, x9
1000025f0: b89dc3a2    	ldursw	x2, [x29, #-36]
1000025f4: 940004b4    	bl	0x1000038c4 <_waitpid+0x1000038c4>
1000025f8: f94003e8    	ldr	x8, [sp]
1000025fc: b85e03a9    	ldur	w9, [x29, #-32]
100002600: b85dc3aa    	ldur	w10, [x29, #-36]
100002604: 0b0a0129    	add	w9, w9, w10
100002608: 1100052a    	add	w10, w9, #1
10000260c: aa0a03e9    	mov	x9, x10
100002610: 93407d29    	sxtw	x9, w9
100002614: 9b097d00    	mul	x0, x8, x9
100002618: 940004d5    	bl	0x10000396c <_waitpid+0x10000396c>
10000261c: f94007e3    	ldr	x3, [sp, #8]
100002620: f9000be0    	str	x0, [sp, #16]
100002624: f9400fe8    	ldr	x8, [sp, #24]
100002628: b89dc3a9    	ldursw	x9, [x29, #-36]
10000262c: 8b090108    	add	x8, x8, x9
100002630: 3900011f    	strb	wzr, [x8]
100002634: f9400be0    	ldr	x0, [sp, #16]
100002638: f94013e1    	ldr	x1, [sp, #32]
10000263c: b89e03a2    	ldursw	x2, [x29, #-32]
100002640: 940004a1    	bl	0x1000038c4 <_waitpid+0x1000038c4>
100002644: f94007e3    	ldr	x3, [sp, #8]
100002648: 385f73a8    	ldurb	w8, [x29, #-9]
10000264c: f9400be9    	ldr	x9, [sp, #16]
100002650: b89e43aa    	ldursw	x10, [x29, #-28]
100002654: 8b0a0129    	add	x9, x9, x10
100002658: 39000128    	strb	w8, [x9]
10000265c: f9400be8    	ldr	x8, [sp, #16]
100002660: b85e43a9    	ldur	w9, [x29, #-28]
100002664: 11000529    	add	w9, w9, #1
100002668: 8b29c100    	add	x0, x8, w9, sxtw
10000266c: f9400fe1    	ldr	x1, [sp, #24]
100002670: b89dc3a2    	ldursw	x2, [x29, #-36]
100002674: 94000494    	bl	0x1000038c4 <_waitpid+0x1000038c4>
100002678: f85f83a8    	ldur	x8, [x29, #-8]
10000267c: f9400100    	ldr	x0, [x8]
100002680: 940004b2    	bl	0x100003948 <_waitpid+0x100003948>
100002684: f9400be8    	ldr	x8, [sp, #16]
100002688: f85f83a9    	ldur	x9, [x29, #-8]
10000268c: f9000128    	str	x8, [x9]
100002690: f85f83a8    	ldur	x8, [x29, #-8]
100002694: f9400108    	ldr	x8, [x8]
100002698: b85e03a9    	ldur	w9, [x29, #-32]
10000269c: b85dc3aa    	ldur	w10, [x29, #-36]
1000026a0: 0b0a0129    	add	w9, w9, w10
1000026a4: 8b29c108    	add	x8, x8, w9, sxtw
1000026a8: 3900011f    	strb	wzr, [x8]
1000026ac: f85f83a8    	ldur	x8, [x29, #-8]
1000026b0: f9400100    	ldr	x0, [x8]
1000026b4: 940004c3    	bl	0x1000039c0 <_waitpid+0x1000039c0>
1000026b8: f85f83a9    	ldur	x9, [x29, #-8]
1000026bc: aa0003e8    	mov	x8, x0
1000026c0: b9000928    	str	w8, [x9, #8]
1000026c4: f85e83a9    	ldur	x9, [x29, #-24]
1000026c8: b9400128    	ldr	w8, [x9]
1000026cc: 11000508    	add	w8, w8, #1
1000026d0: b9000128    	str	w8, [x9]
1000026d4: f94013e0    	ldr	x0, [sp, #32]
1000026d8: 9400049c    	bl	0x100003948 <_waitpid+0x100003948>
1000026dc: f9400fe0    	ldr	x0, [sp, #24]
1000026e0: 9400049a    	bl	0x100003948 <_waitpid+0x100003948>
1000026e4: 14000001    	b	0x1000026e8 <_write_line_stack+0x26c>
1000026e8: a9457bfd    	ldp	x29, x30, [sp, #80]
1000026ec: 910183ff    	add	sp, sp, #96
1000026f0: d65f03c0    	ret

00000001000026f4 <_turn_off_echo>:
1000026f4: d101c3ff    	sub	sp, sp, #112
1000026f8: a9067bfd    	stp	x29, x30, [sp, #96]
1000026fc: 910183fd    	add	x29, sp, #96
100002700: d0000008    	adrp	x8, 0x100004000 <_turn_off_echo+0x14>
100002704: f9400908    	ldr	x8, [x8, #16]
100002708: f9400108    	ldr	x8, [x8]
10000270c: f81f83a8    	stur	x8, [x29, #-8]
100002710: 52800000    	mov	w0, #0
100002714: b90007e0    	str	w0, [sp, #4]
100002718: 910043e1    	add	x1, sp, #16
10000271c: f90007e1    	str	x1, [sp, #8]
100002720: 940004b1    	bl	0x1000039e4 <_waitpid+0x1000039e4>
100002724: b94007e1    	ldr	w1, [sp, #4]
100002728: f94007e2    	ldr	x2, [sp, #8]
10000272c: f94017e8    	ldr	x8, [sp, #40]
100002730: 92802109    	mov	x9, #-265
100002734: 8a090108    	and	x8, x8, x9
100002738: f90017e8    	str	x8, [sp, #40]
10000273c: aa0103e0    	mov	x0, x1
100002740: 940004ac    	bl	0x1000039f0 <_waitpid+0x1000039f0>
100002744: f85f83a9    	ldur	x9, [x29, #-8]
100002748: d0000008    	adrp	x8, 0x100004000 <_turn_off_echo+0x5c>
10000274c: f9400908    	ldr	x8, [x8, #16]
100002750: f9400108    	ldr	x8, [x8]
100002754: eb090108    	subs	x8, x8, x9
100002758: 1a9f17e8    	cset	w8, eq
10000275c: 37000068    	tbnz	w8, #0, 0x100002768 <_turn_off_echo+0x74>
100002760: 14000001    	b	0x100002764 <_turn_off_echo+0x70>
100002764: 9400045b    	bl	0x1000038d0 <_waitpid+0x1000038d0>
100002768: a9467bfd    	ldp	x29, x30, [sp, #96]
10000276c: 9101c3ff    	add	sp, sp, #112
100002770: d65f03c0    	ret

0000000100002774 <_turn_on_echo>:
100002774: d101c3ff    	sub	sp, sp, #112
100002778: a9067bfd    	stp	x29, x30, [sp, #96]
10000277c: 910183fd    	add	x29, sp, #96
100002780: d0000008    	adrp	x8, 0x100004000 <_turn_on_echo+0x14>
100002784: f9400908    	ldr	x8, [x8, #16]
100002788: f9400108    	ldr	x8, [x8]
10000278c: f81f83a8    	stur	x8, [x29, #-8]
100002790: 52800000    	mov	w0, #0
100002794: b90007e0    	str	w0, [sp, #4]
100002798: 910043e1    	add	x1, sp, #16
10000279c: f90007e1    	str	x1, [sp, #8]
1000027a0: 94000491    	bl	0x1000039e4 <_waitpid+0x1000039e4>
1000027a4: b94007e1    	ldr	w1, [sp, #4]
1000027a8: f94007e2    	ldr	x2, [sp, #8]
1000027ac: f94017e8    	ldr	x8, [sp, #40]
1000027b0: d2802109    	mov	x9, #264
1000027b4: aa090108    	orr	x8, x8, x9
1000027b8: f90017e8    	str	x8, [sp, #40]
1000027bc: aa0103e0    	mov	x0, x1
1000027c0: 9400048c    	bl	0x1000039f0 <_waitpid+0x1000039f0>
1000027c4: f85f83a9    	ldur	x9, [x29, #-8]
1000027c8: d0000008    	adrp	x8, 0x100004000 <_turn_on_echo+0x5c>
1000027cc: f9400908    	ldr	x8, [x8, #16]
1000027d0: f9400108    	ldr	x8, [x8]
1000027d4: eb090108    	subs	x8, x8, x9
1000027d8: 1a9f17e8    	cset	w8, eq
1000027dc: 37000068    	tbnz	w8, #0, 0x1000027e8 <_turn_on_echo+0x74>
1000027e0: 14000001    	b	0x1000027e4 <_turn_on_echo+0x70>
1000027e4: 9400043b    	bl	0x1000038d0 <_waitpid+0x1000038d0>
1000027e8: a9467bfd    	ldp	x29, x30, [sp, #96]
1000027ec: 9101c3ff    	add	sp, sp, #112
1000027f0: d65f03c0    	ret

00000001000027f4 <_dynamic_read_line>:
1000027f4: d10283ff    	sub	sp, sp, #160
1000027f8: a9097bfd    	stp	x29, x30, [sp, #144]
1000027fc: 910243fd    	add	x29, sp, #144
100002800: d0000008    	adrp	x8, 0x100004000 <_dynamic_read_line+0x14>
100002804: f9401508    	ldr	x8, [x8, #40]
100002808: f90023e8    	str	x8, [sp, #64]
10000280c: f81f83a0    	stur	x0, [x29, #-8]
100002810: b81f43a1    	stur	w1, [x29, #-12]
100002814: f81e83a2    	stur	x2, [x29, #-24]
100002818: f81e03a3    	stur	x3, [x29, #-32]
10000281c: f85e03a0    	ldur	x0, [x29, #-32]
100002820: 94000468    	bl	0x1000039c0 <_waitpid+0x1000039c0>
100002824: 91001008    	add	x8, x0, #4
100002828: b81dc3a8    	stur	w8, [x29, #-36]
10000282c: b81d83bf    	stur	wzr, [x29, #-40]
100002830: d2800200    	mov	x0, #16
100002834: 9400044e    	bl	0x10000396c <_waitpid+0x10000396c>
100002838: f81d03a0    	stur	x0, [x29, #-48]
10000283c: f85d03a8    	ldur	x8, [x29, #-48]
100002840: f1000108    	subs	x8, x8, #0
100002844: 1a9f07e8    	cset	w8, ne
100002848: 37000128    	tbnz	w8, #0, 0x10000286c <_dynamic_read_line+0x78>
10000284c: 14000001    	b	0x100002850 <_dynamic_read_line+0x5c>
100002850: d0000008    	adrp	x8, 0x100004000 <_dynamic_read_line+0x64>
100002854: f9400d08    	ldr	x8, [x8, #24]
100002858: f9400100    	ldr	x0, [x8]
10000285c: b0000001    	adrp	x1, 0x100003000 <_dynamic_read_line+0x6c>
100002860: 912dd821    	add	x1, x1, #2934
100002864: 94000433    	bl	0x100003930 <_waitpid+0x100003930>
100002868: 1400016d    	b	0x100002e1c <_dynamic_read_line+0x628>
10000286c: f85d03a8    	ldur	x8, [x29, #-48]
100002870: f900011f    	str	xzr, [x8]
100002874: f85d03a8    	ldur	x8, [x29, #-48]
100002878: b900091f    	str	wzr, [x8, #8]
10000287c: b85dc3a9    	ldur	w9, [x29, #-36]
100002880: aa0903e8    	mov	x8, x9
100002884: 910003e9    	mov	x9, sp
100002888: f9000128    	str	x8, [x9]
10000288c: b0000000    	adrp	x0, 0x100003000 <_dynamic_read_line+0x9c>
100002890: 912e6400    	add	x0, x0, #2969
100002894: 94000442    	bl	0x10000399c <_waitpid+0x10000399c>
100002898: 14000001    	b	0x10000289c <_dynamic_read_line+0xa8>
10000289c: 9400042e    	bl	0x100003954 <_waitpid+0x100003954>
1000028a0: 381cf3a0    	sturb	w0, [x29, #-49]
1000028a4: 38dcf3a8    	ldursb	w8, [x29, #-49]
1000028a8: 71002908    	subs	w8, w8, #10
1000028ac: 1a9f07e8    	cset	w8, ne
1000028b0: 37000068    	tbnz	w8, #0, 0x1000028bc <_dynamic_read_line+0xc8>
1000028b4: 14000001    	b	0x1000028b8 <_dynamic_read_line+0xc4>
1000028b8: 14000142    	b	0x100002dc0 <_dynamic_read_line+0x5cc>
1000028bc: 38dcf3a8    	ldursb	w8, [x29, #-49]
1000028c0: 7101fd08    	subs	w8, w8, #127
1000028c4: 1a9f07e8    	cset	w8, ne
1000028c8: 37000948    	tbnz	w8, #0, 0x1000029f0 <_dynamic_read_line+0x1fc>
1000028cc: 14000001    	b	0x1000028d0 <_dynamic_read_line+0xdc>
1000028d0: f85d03a0    	ldur	x0, [x29, #-48]
1000028d4: d100a3a1    	sub	x1, x29, #40
1000028d8: 97fffe72    	bl	0x1000022a0 <_delete_line_stack>
1000028dc: b85dc3a9    	ldur	w9, [x29, #-36]
1000028e0: aa0903e8    	mov	x8, x9
1000028e4: 910003e9    	mov	x9, sp
1000028e8: f9000128    	str	x8, [x9]
1000028ec: b0000000    	adrp	x0, 0x100003000 <_dynamic_read_line+0xfc>
1000028f0: 912e7800    	add	x0, x0, #2974
1000028f4: 9400042a    	bl	0x10000399c <_waitpid+0x10000399c>
1000028f8: b81c83bf    	stur	wzr, [x29, #-56]
1000028fc: 14000001    	b	0x100002900 <_dynamic_read_line+0x10c>
100002900: b85c83a8    	ldur	w8, [x29, #-56]
100002904: f85d03a9    	ldur	x9, [x29, #-48]
100002908: b9400929    	ldr	w9, [x9, #8]
10000290c: 6b090108    	subs	w8, w8, w9
100002910: 1a9fd7e8    	cset	w8, gt
100002914: 37000148    	tbnz	w8, #0, 0x10000293c <_dynamic_read_line+0x148>
100002918: 14000001    	b	0x10000291c <_dynamic_read_line+0x128>
10000291c: b0000000    	adrp	x0, 0x100003000 <_dynamic_read_line+0x12c>
100002920: 912e9000    	add	x0, x0, #2980
100002924: 9400041e    	bl	0x10000399c <_waitpid+0x10000399c>
100002928: 14000001    	b	0x10000292c <_dynamic_read_line+0x138>
10000292c: b85c83a8    	ldur	w8, [x29, #-56]
100002930: 11000508    	add	w8, w8, #1
100002934: b81c83a8    	stur	w8, [x29, #-56]
100002938: 17fffff2    	b	0x100002900 <_dynamic_read_line+0x10c>
10000293c: b85dc3a9    	ldur	w9, [x29, #-36]
100002940: aa0903e8    	mov	x8, x9
100002944: 910003e9    	mov	x9, sp
100002948: f9000128    	str	x8, [x9]
10000294c: b0000000    	adrp	x0, 0x100003000 <_dynamic_read_line+0x15c>
100002950: 912e7800    	add	x0, x0, #2974
100002954: 94000412    	bl	0x10000399c <_waitpid+0x10000399c>
100002958: f85d03a8    	ldur	x8, [x29, #-48]
10000295c: f9400108    	ldr	x8, [x8]
100002960: f1000108    	subs	x8, x8, #0
100002964: 1a9f17e8    	cset	w8, eq
100002968: 37000148    	tbnz	w8, #0, 0x100002990 <_dynamic_read_line+0x19c>
10000296c: 14000001    	b	0x100002970 <_dynamic_read_line+0x17c>
100002970: f85d03a8    	ldur	x8, [x29, #-48]
100002974: f9400108    	ldr	x8, [x8]
100002978: 910003e9    	mov	x9, sp
10000297c: f9000128    	str	x8, [x9]
100002980: b0000000    	adrp	x0, 0x100003000 <_dynamic_read_line+0x190>
100002984: 912e9800    	add	x0, x0, #2982
100002988: 94000405    	bl	0x10000399c <_waitpid+0x10000399c>
10000298c: 14000001    	b	0x100002990 <_dynamic_read_line+0x19c>
100002990: b85d83a8    	ldur	w8, [x29, #-40]
100002994: 71000108    	subs	w8, w8, #0
100002998: 1a9f07e8    	cset	w8, ne
10000299c: 37000148    	tbnz	w8, #0, 0x1000029c4 <_dynamic_read_line+0x1d0>
1000029a0: 14000001    	b	0x1000029a4 <_dynamic_read_line+0x1b0>
1000029a4: b85dc3a9    	ldur	w9, [x29, #-36]
1000029a8: aa0903e8    	mov	x8, x9
1000029ac: 910003e9    	mov	x9, sp
1000029b0: f9000128    	str	x8, [x9]
1000029b4: b0000000    	adrp	x0, 0x100003000 <_dynamic_read_line+0x1c4>
1000029b8: 912e7800    	add	x0, x0, #2974
1000029bc: 940003f8    	bl	0x10000399c <_waitpid+0x10000399c>
1000029c0: 1400000b    	b	0x1000029ec <_dynamic_read_line+0x1f8>
1000029c4: b85d83a8    	ldur	w8, [x29, #-40]
1000029c8: b85dc3a9    	ldur	w9, [x29, #-36]
1000029cc: 0b09010a    	add	w10, w8, w9
1000029d0: 910003e9    	mov	x9, sp
1000029d4: aa0a03e8    	mov	x8, x10
1000029d8: f9000128    	str	x8, [x9]
1000029dc: b0000000    	adrp	x0, 0x100003000 <_dynamic_read_line+0x1ec>
1000029e0: 912e7800    	add	x0, x0, #2974
1000029e4: 940003ee    	bl	0x10000399c <_waitpid+0x10000399c>
1000029e8: 14000001    	b	0x1000029ec <_dynamic_read_line+0x1f8>
1000029ec: 140000e4    	b	0x100002d7c <_dynamic_read_line+0x588>
1000029f0: 38dcf3a8    	ldursb	w8, [x29, #-49]
1000029f4: 71006d08    	subs	w8, w8, #27
1000029f8: 1a9f07e8    	cset	w8, ne
1000029fc: 37001648    	tbnz	w8, #0, 0x100002cc4 <_dynamic_read_line+0x4d0>
100002a00: 14000001    	b	0x100002a04 <_dynamic_read_line+0x210>
100002a04: 940003d4    	bl	0x100003954 <_waitpid+0x100003954>
100002a08: 381cf3a0    	sturb	w0, [x29, #-49]
100002a0c: 38dcf3a8    	ldursb	w8, [x29, #-49]
100002a10: 71016d08    	subs	w8, w8, #91
100002a14: 1a9f07e8    	cset	w8, ne
100002a18: 37001548    	tbnz	w8, #0, 0x100002cc0 <_dynamic_read_line+0x4cc>
100002a1c: 14000001    	b	0x100002a20 <_dynamic_read_line+0x22c>
100002a20: 940003cd    	bl	0x100003954 <_waitpid+0x100003954>
100002a24: 381cf3a0    	sturb	w0, [x29, #-49]
100002a28: 38dcf3a8    	ldursb	w8, [x29, #-49]
100002a2c: 71010508    	subs	w8, w8, #65
100002a30: f9001fe8    	str	x8, [sp, #56]
100002a34: f1000d08    	subs	x8, x8, #3
100002a38: 1a9f97e8    	cset	w8, hi
100002a3c: 37001408    	tbnz	w8, #0, 0x100002cbc <_dynamic_read_line+0x4c8>
100002a40: f9401feb    	ldr	x11, [sp, #56]
100002a44: 9000000a    	adrp	x10, 0x100002000 <_dynamic_read_line+0x250>
100002a48: 9138a14a    	add	x10, x10, #3624
100002a4c: 10000008    	adr	x8, #0
100002a50: b8ab7949    	ldrsw	x9, [x10, x11, lsl #2]
100002a54: 8b090108    	add	x8, x8, x9
100002a58: d61f0100    	br	x8
100002a5c: f85d03a8    	ldur	x8, [x29, #-48]
100002a60: f9400108    	ldr	x8, [x8]
100002a64: f1000108    	subs	x8, x8, #0
100002a68: 1a9f17e8    	cset	w8, eq
100002a6c: 370001a8    	tbnz	w8, #0, 0x100002aa0 <_dynamic_read_line+0x2ac>
100002a70: 14000001    	b	0x100002a74 <_dynamic_read_line+0x280>
100002a74: b85dc3a9    	ldur	w9, [x29, #-36]
100002a78: aa0903e8    	mov	x8, x9
100002a7c: 910003e9    	mov	x9, sp
100002a80: f9000128    	str	x8, [x9]
100002a84: b0000000    	adrp	x0, 0x100003000 <_dynamic_read_line+0x294>
100002a88: 912ea400    	add	x0, x0, #2985
100002a8c: 940003c4    	bl	0x10000399c <_waitpid+0x10000399c>
100002a90: f85d03a8    	ldur	x8, [x29, #-48]
100002a94: f9400100    	ldr	x0, [x8]
100002a98: 940003ac    	bl	0x100003948 <_waitpid+0x100003948>
100002a9c: 14000001    	b	0x100002aa0 <_dynamic_read_line+0x2ac>
100002aa0: f85e83a0    	ldur	x0, [x29, #-24]
100002aa4: 97fffd45    	bl	0x100001fb8 <_upValue>
100002aa8: f81c03a0    	stur	x0, [x29, #-64]
100002aac: f85c03a0    	ldur	x0, [x29, #-64]
100002ab0: 940003c4    	bl	0x1000039c0 <_waitpid+0x1000039c0>
100002ab4: f85d03a9    	ldur	x9, [x29, #-48]
100002ab8: aa0003e8    	mov	x8, x0
100002abc: b9000928    	str	w8, [x9, #8]
100002ac0: f85c03a0    	ldur	x0, [x29, #-64]
100002ac4: 940003bf    	bl	0x1000039c0 <_waitpid+0x1000039c0>
100002ac8: d2800028    	mov	x8, #1
100002acc: 9b007d00    	mul	x0, x8, x0
100002ad0: 940003a7    	bl	0x10000396c <_waitpid+0x10000396c>
100002ad4: f85d03a8    	ldur	x8, [x29, #-48]
100002ad8: f9000100    	str	x0, [x8]
100002adc: f85d03a8    	ldur	x8, [x29, #-48]
100002ae0: f9400108    	ldr	x8, [x8]
100002ae4: f9001be8    	str	x8, [sp, #48]
100002ae8: f85c03a8    	ldur	x8, [x29, #-64]
100002aec: f90017e8    	str	x8, [sp, #40]
100002af0: f85c03a0    	ldur	x0, [x29, #-64]
100002af4: 940003b3    	bl	0x1000039c0 <_waitpid+0x1000039c0>
100002af8: f94017e1    	ldr	x1, [sp, #40]
100002afc: aa0003e2    	mov	x2, x0
100002b00: f9401be0    	ldr	x0, [sp, #48]
100002b04: 92800003    	mov	x3, #-1
100002b08: 9400036f    	bl	0x1000038c4 <_waitpid+0x1000038c4>
100002b0c: b85dc3a9    	ldur	w9, [x29, #-36]
100002b10: aa0903e8    	mov	x8, x9
100002b14: 910003e9    	mov	x9, sp
100002b18: f9000128    	str	x8, [x9]
100002b1c: b0000000    	adrp	x0, 0x100003000 <_dynamic_read_line+0x32c>
100002b20: 912e7800    	add	x0, x0, #2974
100002b24: 9400039e    	bl	0x10000399c <_waitpid+0x10000399c>
100002b28: f85d03a8    	ldur	x8, [x29, #-48]
100002b2c: f9400108    	ldr	x8, [x8]
100002b30: 910003e9    	mov	x9, sp
100002b34: f9000128    	str	x8, [x9]
100002b38: b0000000    	adrp	x0, 0x100003000 <_dynamic_read_line+0x348>
100002b3c: 912e9800    	add	x0, x0, #2982
100002b40: 94000397    	bl	0x10000399c <_waitpid+0x10000399c>
100002b44: f94023e8    	ldr	x8, [sp, #64]
100002b48: f9400100    	ldr	x0, [x8]
100002b4c: 94000373    	bl	0x100003918 <_waitpid+0x100003918>
100002b50: 1400005b    	b	0x100002cbc <_dynamic_read_line+0x4c8>
100002b54: f85d03a8    	ldur	x8, [x29, #-48]
100002b58: f9400108    	ldr	x8, [x8]
100002b5c: f1000108    	subs	x8, x8, #0
100002b60: 1a9f17e8    	cset	w8, eq
100002b64: 370001a8    	tbnz	w8, #0, 0x100002b98 <_dynamic_read_line+0x3a4>
100002b68: 14000001    	b	0x100002b6c <_dynamic_read_line+0x378>
100002b6c: b85dc3a9    	ldur	w9, [x29, #-36]
100002b70: aa0903e8    	mov	x8, x9
100002b74: 910003e9    	mov	x9, sp
100002b78: f9000128    	str	x8, [x9]
100002b7c: b0000000    	adrp	x0, 0x100003000 <_dynamic_read_line+0x38c>
100002b80: 912ea400    	add	x0, x0, #2985
100002b84: 94000386    	bl	0x10000399c <_waitpid+0x10000399c>
100002b88: f85d03a8    	ldur	x8, [x29, #-48]
100002b8c: f9400100    	ldr	x0, [x8]
100002b90: 9400036e    	bl	0x100003948 <_waitpid+0x100003948>
100002b94: 14000001    	b	0x100002b98 <_dynamic_read_line+0x3a4>
100002b98: f85e83a0    	ldur	x0, [x29, #-24]
100002b9c: 97fffd62    	bl	0x100002124 <_downValue>
100002ba0: f90027e0    	str	x0, [sp, #72]
100002ba4: f94027e0    	ldr	x0, [sp, #72]
100002ba8: 94000386    	bl	0x1000039c0 <_waitpid+0x1000039c0>
100002bac: f85d03a9    	ldur	x9, [x29, #-48]
100002bb0: aa0003e8    	mov	x8, x0
100002bb4: b9000928    	str	w8, [x9, #8]
100002bb8: f94027e0    	ldr	x0, [sp, #72]
100002bbc: 94000381    	bl	0x1000039c0 <_waitpid+0x1000039c0>
100002bc0: d2800028    	mov	x8, #1
100002bc4: 9b007d00    	mul	x0, x8, x0
100002bc8: 94000369    	bl	0x10000396c <_waitpid+0x10000396c>
100002bcc: f85d03a8    	ldur	x8, [x29, #-48]
100002bd0: f9000100    	str	x0, [x8]
100002bd4: f85d03a8    	ldur	x8, [x29, #-48]
100002bd8: f9400108    	ldr	x8, [x8]
100002bdc: f90013e8    	str	x8, [sp, #32]
100002be0: f94027e8    	ldr	x8, [sp, #72]
100002be4: f9000fe8    	str	x8, [sp, #24]
100002be8: f94027e0    	ldr	x0, [sp, #72]
100002bec: 94000375    	bl	0x1000039c0 <_waitpid+0x1000039c0>
100002bf0: f9400fe1    	ldr	x1, [sp, #24]
100002bf4: aa0003e2    	mov	x2, x0
100002bf8: f94013e0    	ldr	x0, [sp, #32]
100002bfc: 92800003    	mov	x3, #-1
100002c00: 94000331    	bl	0x1000038c4 <_waitpid+0x1000038c4>
100002c04: b85dc3a9    	ldur	w9, [x29, #-36]
100002c08: aa0903e8    	mov	x8, x9
100002c0c: 910003e9    	mov	x9, sp
100002c10: f9000128    	str	x8, [x9]
100002c14: b0000000    	adrp	x0, 0x100003000 <_dynamic_read_line+0x424>
100002c18: 912e7800    	add	x0, x0, #2974
100002c1c: 94000360    	bl	0x10000399c <_waitpid+0x10000399c>
100002c20: f85d03a8    	ldur	x8, [x29, #-48]
100002c24: f9400108    	ldr	x8, [x8]
100002c28: 910003e9    	mov	x9, sp
100002c2c: f9000128    	str	x8, [x9]
100002c30: b0000000    	adrp	x0, 0x100003000 <_dynamic_read_line+0x440>
100002c34: 912e9800    	add	x0, x0, #2982
100002c38: 94000359    	bl	0x10000399c <_waitpid+0x10000399c>
100002c3c: f94023e8    	ldr	x8, [sp, #64]
100002c40: f9400100    	ldr	x0, [x8]
100002c44: 94000335    	bl	0x100003918 <_waitpid+0x100003918>
100002c48: 1400001d    	b	0x100002cbc <_dynamic_read_line+0x4c8>
100002c4c: b85d83a8    	ldur	w8, [x29, #-40]
100002c50: f85d03a9    	ldur	x9, [x29, #-48]
100002c54: b9400929    	ldr	w9, [x9, #8]
100002c58: 6b090108    	subs	w8, w8, w9
100002c5c: 1a9fb7e8    	cset	w8, ge
100002c60: 37000128    	tbnz	w8, #0, 0x100002c84 <_dynamic_read_line+0x490>
100002c64: 14000001    	b	0x100002c68 <_dynamic_read_line+0x474>
100002c68: b0000000    	adrp	x0, 0x100003000 <_dynamic_read_line+0x478>
100002c6c: 912ec800    	add	x0, x0, #2994
100002c70: 9400034b    	bl	0x10000399c <_waitpid+0x10000399c>
100002c74: b85d83a8    	ldur	w8, [x29, #-40]
100002c78: 11000508    	add	w8, w8, #1
100002c7c: b81d83a8    	stur	w8, [x29, #-40]
100002c80: 14000001    	b	0x100002c84 <_dynamic_read_line+0x490>
100002c84: 1400000e    	b	0x100002cbc <_dynamic_read_line+0x4c8>
100002c88: b85d83a8    	ldur	w8, [x29, #-40]
100002c8c: 71000108    	subs	w8, w8, #0
100002c90: 1a9fc7e8    	cset	w8, le
100002c94: 37000128    	tbnz	w8, #0, 0x100002cb8 <_dynamic_read_line+0x4c4>
100002c98: 14000001    	b	0x100002c9c <_dynamic_read_line+0x4a8>
100002c9c: b0000000    	adrp	x0, 0x100003000 <_dynamic_read_line+0x4ac>
100002ca0: 912ed800    	add	x0, x0, #2998
100002ca4: 9400033e    	bl	0x10000399c <_waitpid+0x10000399c>
100002ca8: b85d83a8    	ldur	w8, [x29, #-40]
100002cac: 71000508    	subs	w8, w8, #1
100002cb0: b81d83a8    	stur	w8, [x29, #-40]
100002cb4: 14000001    	b	0x100002cb8 <_dynamic_read_line+0x4c4>
100002cb8: 14000001    	b	0x100002cbc <_dynamic_read_line+0x4c8>
100002cbc: 14000001    	b	0x100002cc0 <_dynamic_read_line+0x4cc>
100002cc0: 1400002e    	b	0x100002d78 <_dynamic_read_line+0x584>
100002cc4: f85d03a0    	ldur	x0, [x29, #-48]
100002cc8: 38dcf3a1    	ldursb	w1, [x29, #-49]
100002ccc: d100a3a2    	sub	x2, x29, #40
100002cd0: 97fffdeb    	bl	0x10000247c <_write_line_stack>
100002cd4: b85dc3a9    	ldur	w9, [x29, #-36]
100002cd8: aa0903e8    	mov	x8, x9
100002cdc: 910003e9    	mov	x9, sp
100002ce0: f9000128    	str	x8, [x9]
100002ce4: b0000000    	adrp	x0, 0x100003000 <_dynamic_read_line+0x4f4>
100002ce8: 912e7800    	add	x0, x0, #2974
100002cec: 9400032c    	bl	0x10000399c <_waitpid+0x10000399c>
100002cf0: f85d03a8    	ldur	x8, [x29, #-48]
100002cf4: f9400108    	ldr	x8, [x8]
100002cf8: 910003e9    	mov	x9, sp
100002cfc: f9000128    	str	x8, [x9]
100002d00: b0000000    	adrp	x0, 0x100003000 <_dynamic_read_line+0x510>
100002d04: 912e9800    	add	x0, x0, #2982
100002d08: 94000325    	bl	0x10000399c <_waitpid+0x10000399c>
100002d0c: b85d83a8    	ldur	w8, [x29, #-40]
100002d10: 71000108    	subs	w8, w8, #0
100002d14: 1a9f07e8    	cset	w8, ne
100002d18: 37000148    	tbnz	w8, #0, 0x100002d40 <_dynamic_read_line+0x54c>
100002d1c: 14000001    	b	0x100002d20 <_dynamic_read_line+0x52c>
100002d20: b85dc3a9    	ldur	w9, [x29, #-36]
100002d24: aa0903e8    	mov	x8, x9
100002d28: 910003e9    	mov	x9, sp
100002d2c: f9000128    	str	x8, [x9]
100002d30: b0000000    	adrp	x0, 0x100003000 <_dynamic_read_line+0x540>
100002d34: 912e7800    	add	x0, x0, #2974
100002d38: 94000319    	bl	0x10000399c <_waitpid+0x10000399c>
100002d3c: 1400000b    	b	0x100002d68 <_dynamic_read_line+0x574>
100002d40: b85d83a8    	ldur	w8, [x29, #-40]
100002d44: b85dc3a9    	ldur	w9, [x29, #-36]
100002d48: 0b09010a    	add	w10, w8, w9
100002d4c: 910003e9    	mov	x9, sp
100002d50: aa0a03e8    	mov	x8, x10
100002d54: f9000128    	str	x8, [x9]
100002d58: b0000000    	adrp	x0, 0x100003000 <_dynamic_read_line+0x568>
100002d5c: 912e7800    	add	x0, x0, #2974
100002d60: 9400030f    	bl	0x10000399c <_waitpid+0x10000399c>
100002d64: 14000001    	b	0x100002d68 <_dynamic_read_line+0x574>
100002d68: f94023e8    	ldr	x8, [sp, #64]
100002d6c: f9400100    	ldr	x0, [x8]
100002d70: 940002ea    	bl	0x100003918 <_waitpid+0x100003918>
100002d74: 14000001    	b	0x100002d78 <_dynamic_read_line+0x584>
100002d78: 14000001    	b	0x100002d7c <_dynamic_read_line+0x588>
100002d7c: 14000001    	b	0x100002d80 <_dynamic_read_line+0x58c>
100002d80: b85d83a8    	ldur	w8, [x29, #-40]
100002d84: b85f43a9    	ldur	w9, [x29, #-12]
100002d88: 6b090108    	subs	w8, w8, w9
100002d8c: 1a9fb7e8    	cset	w8, ge
100002d90: 52800009    	mov	w9, #0
100002d94: b90017e9    	str	w9, [sp, #20]
100002d98: 370000e8    	tbnz	w8, #0, 0x100002db4 <_dynamic_read_line+0x5c0>
100002d9c: 14000001    	b	0x100002da0 <_dynamic_read_line+0x5ac>
100002da0: 38dcf3a8    	ldursb	w8, [x29, #-49]
100002da4: 71002908    	subs	w8, w8, #10
100002da8: 1a9f07e8    	cset	w8, ne
100002dac: b90017e8    	str	w8, [sp, #20]
100002db0: 14000001    	b	0x100002db4 <_dynamic_read_line+0x5c0>
100002db4: b94017e8    	ldr	w8, [sp, #20]
100002db8: 3707d728    	tbnz	w8, #0, 0x10000289c <_dynamic_read_line+0xa8>
100002dbc: 14000001    	b	0x100002dc0 <_dynamic_read_line+0x5cc>
100002dc0: f85d03a8    	ldur	x8, [x29, #-48]
100002dc4: b9800909    	ldrsw	x9, [x8, #8]
100002dc8: d2800028    	mov	x8, #1
100002dcc: 9b097d00    	mul	x0, x8, x9
100002dd0: 940002e7    	bl	0x10000396c <_waitpid+0x10000396c>
100002dd4: f85f83a8    	ldur	x8, [x29, #-8]
100002dd8: f9000100    	str	x0, [x8]
100002ddc: f85d03a8    	ldur	x8, [x29, #-48]
100002de0: f9400108    	ldr	x8, [x8]
100002de4: f85d03a9    	ldur	x9, [x29, #-48]
100002de8: b9800929    	ldrsw	x9, [x9, #8]
100002dec: 8b090109    	add	x9, x8, x9
100002df0: 52800148    	mov	w8, #10
100002df4: 39000128    	strb	w8, [x9]
100002df8: f85f83a8    	ldur	x8, [x29, #-8]
100002dfc: f9400100    	ldr	x0, [x8]
100002e00: f85d03a8    	ldur	x8, [x29, #-48]
100002e04: f9400101    	ldr	x1, [x8]
100002e08: f85d03a8    	ldur	x8, [x29, #-48]
100002e0c: b9800902    	ldrsw	x2, [x8, #8]
100002e10: 92800003    	mov	x3, #-1
100002e14: 940002ac    	bl	0x1000038c4 <_waitpid+0x1000038c4>
100002e18: 14000001    	b	0x100002e1c <_dynamic_read_line+0x628>
100002e1c: a9497bfd    	ldp	x29, x30, [sp, #144]
100002e20: 910283ff    	add	sp, sp, #160
100002e24: d65f03c0    	ret
100002e28: 00000010    	udf	#16
100002e2c: 00000108    	udf	#264
100002e30: 00000200    	udf	#512
100002e34: 0000023c    	udf	#572

0000000100002e38 <_lsh_read_line>:
100002e38: d10083ff    	sub	sp, sp, #32
100002e3c: a9017bfd    	stp	x29, x30, [sp, #16]
100002e40: 910043fd    	add	x29, sp, #16
100002e44: 910023e0    	add	x0, sp, #8
100002e48: f90007ff    	str	xzr, [sp, #8]
100002e4c: 910003e1    	mov	x1, sp
100002e50: f90003ff    	str	xzr, [sp]
100002e54: d0000008    	adrp	x8, 0x100004000 <_lsh_read_line+0x24>
100002e58: f9401108    	ldr	x8, [x8, #32]
100002e5c: f9400102    	ldr	x2, [x8]
100002e60: 940002c0    	bl	0x100003960 <_waitpid+0x100003960>
100002e64: b1000408    	adds	x8, x0, #1
100002e68: 1a9f07e8    	cset	w8, ne
100002e6c: 37000228    	tbnz	w8, #0, 0x100002eb0 <_lsh_read_line+0x78>
100002e70: 14000001    	b	0x100002e74 <_lsh_read_line+0x3c>
100002e74: d0000008    	adrp	x8, 0x100004000 <_lsh_read_line+0x44>
100002e78: f9401108    	ldr	x8, [x8, #32]
100002e7c: f9400100    	ldr	x0, [x8]
100002e80: 940002a3    	bl	0x10000390c <_waitpid+0x10000390c>
100002e84: 71000008    	subs	w8, w0, #0
100002e88: 1a9f17e8    	cset	w8, eq
100002e8c: 37000088    	tbnz	w8, #0, 0x100002e9c <_lsh_read_line+0x64>
100002e90: 14000001    	b	0x100002e94 <_lsh_read_line+0x5c>
100002e94: 52800000    	mov	w0, #0
100002e98: 9400029a    	bl	0x100003900 <_waitpid+0x100003900>
100002e9c: b0000000    	adrp	x0, 0x100003000 <_lsh_read_line+0x68>
100002ea0: 912ee800    	add	x0, x0, #3002
100002ea4: 940002b8    	bl	0x100003984 <_waitpid+0x100003984>
100002ea8: 52800020    	mov	w0, #1
100002eac: 94000295    	bl	0x100003900 <_waitpid+0x100003900>
100002eb0: f94007e0    	ldr	x0, [sp, #8]
100002eb4: a9417bfd    	ldp	x29, x30, [sp, #16]
100002eb8: 910083ff    	add	sp, sp, #32
100002ebc: d65f03c0    	ret

0000000100002ec0 <_lsh_split_line>:
100002ec0: d100c3ff    	sub	sp, sp, #48
100002ec4: a9027bfd    	stp	x29, x30, [sp, #32]
100002ec8: 910083fd    	add	x29, sp, #32
100002ecc: f81f83a0    	stur	x0, [x29, #-8]
100002ed0: 52800808    	mov	w8, #64
100002ed4: b81f43a8    	stur	w8, [x29, #-12]
100002ed8: b90013ff    	str	wzr, [sp, #16]
100002edc: b89f43a8    	ldursw	x8, [x29, #-12]
100002ee0: d37df100    	lsl	x0, x8, #3
100002ee4: 940002a2    	bl	0x10000396c <_waitpid+0x10000396c>
100002ee8: f90007e0    	str	x0, [sp, #8]
100002eec: f94007e8    	ldr	x8, [sp, #8]
100002ef0: f1000108    	subs	x8, x8, #0
100002ef4: 1a9f07e8    	cset	w8, ne
100002ef8: 37000148    	tbnz	w8, #0, 0x100002f20 <_lsh_split_line+0x60>
100002efc: 14000001    	b	0x100002f00 <_lsh_split_line+0x40>
100002f00: d0000008    	adrp	x8, 0x100004000 <_lsh_split_line+0x48>
100002f04: f9400d08    	ldr	x8, [x8, #24]
100002f08: f9400100    	ldr	x0, [x8]
100002f0c: b0000001    	adrp	x1, 0x100003000 <_lsh_split_line+0x50>
100002f10: 912f0c21    	add	x1, x1, #3011
100002f14: 94000287    	bl	0x100003930 <_waitpid+0x100003930>
100002f18: 52800020    	mov	w0, #1
100002f1c: 94000279    	bl	0x100003900 <_waitpid+0x100003900>
100002f20: f85f83a0    	ldur	x0, [x29, #-8]
100002f24: b0000001    	adrp	x1, 0x100003000 <_lsh_split_line+0x68>
100002f28: 912f6421    	add	x1, x1, #3033
100002f2c: 940002ab    	bl	0x1000039d8 <_waitpid+0x1000039d8>
100002f30: f90003e0    	str	x0, [sp]
100002f34: 14000001    	b	0x100002f38 <_lsh_split_line+0x78>
100002f38: f94003e8    	ldr	x8, [sp]
100002f3c: f1000108    	subs	x8, x8, #0
100002f40: 1a9f17e8    	cset	w8, eq
100002f44: 37000568    	tbnz	w8, #0, 0x100002ff0 <_lsh_split_line+0x130>
100002f48: 14000001    	b	0x100002f4c <_lsh_split_line+0x8c>
100002f4c: f94003e8    	ldr	x8, [sp]
100002f50: f94007e9    	ldr	x9, [sp, #8]
100002f54: b98013ea    	ldrsw	x10, [sp, #16]
100002f58: f82a7928    	str	x8, [x9, x10, lsl #3]
100002f5c: b94013e8    	ldr	w8, [sp, #16]
100002f60: 11000508    	add	w8, w8, #1
100002f64: b90013e8    	str	w8, [sp, #16]
100002f68: b94013e8    	ldr	w8, [sp, #16]
100002f6c: b85f43a9    	ldur	w9, [x29, #-12]
100002f70: 6b090108    	subs	w8, w8, w9
100002f74: 1a9fa7e8    	cset	w8, lt
100002f78: 37000308    	tbnz	w8, #0, 0x100002fd8 <_lsh_split_line+0x118>
100002f7c: 14000001    	b	0x100002f80 <_lsh_split_line+0xc0>
100002f80: b85f43a8    	ldur	w8, [x29, #-12]
100002f84: 11010108    	add	w8, w8, #64
100002f88: b81f43a8    	stur	w8, [x29, #-12]
100002f8c: f94007e0    	ldr	x0, [sp, #8]
100002f90: b89f43a8    	ldursw	x8, [x29, #-12]
100002f94: d37df101    	lsl	x1, x8, #3
100002f98: 94000284    	bl	0x1000039a8 <_waitpid+0x1000039a8>
100002f9c: f90007e0    	str	x0, [sp, #8]
100002fa0: f94007e8    	ldr	x8, [sp, #8]
100002fa4: f1000108    	subs	x8, x8, #0
100002fa8: 1a9f07e8    	cset	w8, ne
100002fac: 37000148    	tbnz	w8, #0, 0x100002fd4 <_lsh_split_line+0x114>
100002fb0: 14000001    	b	0x100002fb4 <_lsh_split_line+0xf4>
100002fb4: d0000008    	adrp	x8, 0x100004000 <_lsh_split_line+0xfc>
100002fb8: f9400d08    	ldr	x8, [x8, #24]
100002fbc: f9400100    	ldr	x0, [x8]
100002fc0: b0000001    	adrp	x1, 0x100003000 <_lsh_split_line+0x104>
100002fc4: 912f7c21    	add	x1, x1, #3039
100002fc8: 9400025a    	bl	0x100003930 <_waitpid+0x100003930>
100002fcc: 52800020    	mov	w0, #1
100002fd0: 9400024c    	bl	0x100003900 <_waitpid+0x100003900>
100002fd4: 14000001    	b	0x100002fd8 <_lsh_split_line+0x118>
100002fd8: d2800000    	mov	x0, #0
100002fdc: b0000001    	adrp	x1, 0x100003000 <_lsh_split_line+0x120>
100002fe0: 912f6421    	add	x1, x1, #3033
100002fe4: 9400027d    	bl	0x1000039d8 <_waitpid+0x1000039d8>
100002fe8: f90003e0    	str	x0, [sp]
100002fec: 17ffffd3    	b	0x100002f38 <_lsh_split_line+0x78>
100002ff0: f94007e9    	ldr	x9, [sp, #8]
100002ff4: b98013ea    	ldrsw	x10, [sp, #16]
100002ff8: d2800008    	mov	x8, #0
100002ffc: f82a7928    	str	x8, [x9, x10, lsl #3]
100003000: f94007e0    	ldr	x0, [sp, #8]
100003004: a9427bfd    	ldp	x29, x30, [sp, #32]
100003008: 9100c3ff    	add	sp, sp, #48
10000300c: d65f03c0    	ret

0000000100003010 <_lsh_cd>:
100003010: d10083ff    	sub	sp, sp, #32
100003014: a9017bfd    	stp	x29, x30, [sp, #16]
100003018: 910043fd    	add	x29, sp, #16
10000301c: f90007e0    	str	x0, [sp, #8]
100003020: f94007e8    	ldr	x8, [sp, #8]
100003024: f9400508    	ldr	x8, [x8, #8]
100003028: f1000108    	subs	x8, x8, #0
10000302c: 1a9f07e8    	cset	w8, ne
100003030: 37000128    	tbnz	w8, #0, 0x100003054 <_lsh_cd+0x44>
100003034: 14000001    	b	0x100003038 <_lsh_cd+0x28>
100003038: b0000008    	adrp	x8, 0x100004000 <_lsh_cd+0x2c>
10000303c: f9400d08    	ldr	x8, [x8, #24]
100003040: f9400100    	ldr	x0, [x8]
100003044: 90000001    	adrp	x1, 0x100003000 <_lsh_cd+0x34>
100003048: 91304021    	add	x1, x1, #3088
10000304c: 94000239    	bl	0x100003930 <_waitpid+0x100003930>
100003050: 1400000d    	b	0x100003084 <_lsh_cd+0x74>
100003054: f94007e8    	ldr	x8, [sp, #8]
100003058: f9400500    	ldr	x0, [x8, #8]
10000305c: 94000223    	bl	0x1000038e8 <_waitpid+0x1000038e8>
100003060: 71000008    	subs	w8, w0, #0
100003064: 1a9f17e8    	cset	w8, eq
100003068: 370000c8    	tbnz	w8, #0, 0x100003080 <_lsh_cd+0x70>
10000306c: 14000001    	b	0x100003070 <_lsh_cd+0x60>
100003070: 90000000    	adrp	x0, 0x100003000 <_lsh_cd+0x60>
100003074: 9130c000    	add	x0, x0, #3120
100003078: 94000243    	bl	0x100003984 <_waitpid+0x100003984>
10000307c: 14000001    	b	0x100003080 <_lsh_cd+0x70>
100003080: 14000001    	b	0x100003084 <_lsh_cd+0x74>
100003084: 52800020    	mov	w0, #1
100003088: a9417bfd    	ldp	x29, x30, [sp, #16]
10000308c: 910083ff    	add	sp, sp, #32
100003090: d65f03c0    	ret

0000000100003094 <_lsh_help>:
100003094: d10083ff    	sub	sp, sp, #32
100003098: a9017bfd    	stp	x29, x30, [sp, #16]
10000309c: 910043fd    	add	x29, sp, #16
1000030a0: f90007e0    	str	x0, [sp, #8]
1000030a4: 90000000    	adrp	x0, 0x100003000 <_lsh_help+0x10>
1000030a8: 91343000    	add	x0, x0, #3340
1000030ac: 9400023c    	bl	0x10000399c <_waitpid+0x10000399c>
1000030b0: 90000000    	adrp	x0, 0x100003000 <_lsh_help+0x1c>
1000030b4: 9134bc00    	add	x0, x0, #3375
1000030b8: 94000239    	bl	0x10000399c <_waitpid+0x10000399c>
1000030bc: 90000000    	adrp	x0, 0x100003000 <_lsh_help+0x28>
1000030c0: 91365c00    	add	x0, x0, #3479
1000030c4: 94000236    	bl	0x10000399c <_waitpid+0x10000399c>
1000030c8: 90000000    	adrp	x0, 0x100003000 <_lsh_help+0x34>
1000030cc: 91383800    	add	x0, x0, #3598
1000030d0: 94000233    	bl	0x10000399c <_waitpid+0x10000399c>
1000030d4: 52800020    	mov	w0, #1
1000030d8: a9417bfd    	ldp	x29, x30, [sp, #16]
1000030dc: 910083ff    	add	sp, sp, #32
1000030e0: d65f03c0    	ret

00000001000030e4 <_lsh_exit>:
1000030e4: d10043ff    	sub	sp, sp, #16
1000030e8: f90007e0    	str	x0, [sp, #8]
1000030ec: 52800000    	mov	w0, #0
1000030f0: 910043ff    	add	sp, sp, #16
1000030f4: d65f03c0    	ret

00000001000030f8 <_change_color>:
1000030f8: d10103ff    	sub	sp, sp, #64
1000030fc: a9037bfd    	stp	x29, x30, [sp, #48]
100003100: 9100c3fd    	add	x29, sp, #48
100003104: f81f83a0    	stur	x0, [x29, #-8]
100003108: f85f83a8    	ldur	x8, [x29, #-8]
10000310c: f9400508    	ldr	x8, [x8, #8]
100003110: f1000108    	subs	x8, x8, #0
100003114: 1a9f07e8    	cset	w8, ne
100003118: 370000c8    	tbnz	w8, #0, 0x100003130 <_change_color+0x38>
10000311c: 14000001    	b	0x100003120 <_change_color+0x28>
100003120: 90000000    	adrp	x0, 0x100003000 <_change_color+0x28>
100003124: 9130d000    	add	x0, x0, #3124
100003128: 9400021d    	bl	0x10000399c <_waitpid+0x10000399c>
10000312c: 1400006a    	b	0x1000032d4 <_change_color+0x1dc>
100003130: f85f83a8    	ldur	x8, [x29, #-8]
100003134: f9400500    	ldr	x0, [x8, #8]
100003138: 90000001    	adrp	x1, 0x100003000 <_change_color+0x40>
10000313c: 91323021    	add	x1, x1, #3212
100003140: 9400021d    	bl	0x1000039b4 <_waitpid+0x1000039b4>
100003144: 71000008    	subs	w8, w0, #0
100003148: 1a9f07e8    	cset	w8, ne
10000314c: 37000568    	tbnz	w8, #0, 0x1000031f8 <_change_color+0x100>
100003150: 14000001    	b	0x100003154 <_change_color+0x5c>
100003154: 90000000    	adrp	x0, 0x100003000 <_change_color+0x5c>
100003158: 91323c00    	add	x0, x0, #3215
10000315c: 94000210    	bl	0x10000399c <_waitpid+0x10000399c>
100003160: b81f43bf    	stur	wzr, [x29, #-12]
100003164: 14000001    	b	0x100003168 <_change_color+0x70>
100003168: b85f43a8    	ldur	w8, [x29, #-12]
10000316c: 71001d08    	subs	w8, w8, #7
100003170: 1a9fb7e8    	cset	w8, ge
100003174: 370003a8    	tbnz	w8, #0, 0x1000031e8 <_change_color+0xf0>
100003178: 14000001    	b	0x10000317c <_change_color+0x84>
10000317c: b89f43a9    	ldursw	x9, [x29, #-12]
100003180: b0000028    	adrp	x8, 0x100008000 <_change_color+0x9c>
100003184: 9100e108    	add	x8, x8, #56
100003188: f8697908    	ldr	x8, [x8, x9, lsl #3]
10000318c: 910003e9    	mov	x9, sp
100003190: f9000128    	str	x8, [x9]
100003194: 90000000    	adrp	x0, 0x100003000 <_change_color+0x9c>
100003198: 9132e800    	add	x0, x0, #3258
10000319c: 94000200    	bl	0x10000399c <_waitpid+0x10000399c>
1000031a0: b85f43a8    	ldur	w8, [x29, #-12]
1000031a4: 5280006a    	mov	w10, #3
1000031a8: 1aca0d09    	sdiv	w9, w8, w10
1000031ac: 1b0a7d29    	mul	w9, w9, w10
1000031b0: 6b090108    	subs	w8, w8, w9
1000031b4: 71000108    	subs	w8, w8, #0
1000031b8: 1a9f07e8    	cset	w8, ne
1000031bc: 370000c8    	tbnz	w8, #0, 0x1000031d4 <_change_color+0xdc>
1000031c0: 14000001    	b	0x1000031c4 <_change_color+0xcc>
1000031c4: 90000000    	adrp	x0, 0x100003000 <_change_color+0xcc>
1000031c8: 9132fc00    	add	x0, x0, #3263
1000031cc: 940001f4    	bl	0x10000399c <_waitpid+0x10000399c>
1000031d0: 14000001    	b	0x1000031d4 <_change_color+0xdc>
1000031d4: 14000001    	b	0x1000031d8 <_change_color+0xe0>
1000031d8: b85f43a8    	ldur	w8, [x29, #-12]
1000031dc: 11000508    	add	w8, w8, #1
1000031e0: b81f43a8    	stur	w8, [x29, #-12]
1000031e4: 17ffffe1    	b	0x100003168 <_change_color+0x70>
1000031e8: 90000000    	adrp	x0, 0x100003000 <_change_color+0xf0>
1000031ec: 9132fc00    	add	x0, x0, #3263
1000031f0: 940001eb    	bl	0x10000399c <_waitpid+0x10000399c>
1000031f4: 14000037    	b	0x1000032d0 <_change_color+0x1d8>
1000031f8: 381f33bf    	sturb	wzr, [x29, #-13]
1000031fc: f85f83a8    	ldur	x8, [x29, #-8]
100003200: f9400508    	ldr	x8, [x8, #8]
100003204: f9000fe8    	str	x8, [sp, #24]
100003208: f9400fe0    	ldr	x0, [sp, #24]
10000320c: 94000038    	bl	0x1000032ec <_toUpper>
100003210: b90017ff    	str	wzr, [sp, #20]
100003214: 14000001    	b	0x100003218 <_change_color+0x120>
100003218: 385f33a8    	ldurb	w8, [x29, #-13]
10000321c: 52800009    	mov	w9, #0
100003220: b90013e9    	str	w9, [sp, #16]
100003224: 370000e8    	tbnz	w8, #0, 0x100003240 <_change_color+0x148>
100003228: 14000001    	b	0x10000322c <_change_color+0x134>
10000322c: b94017e8    	ldr	w8, [sp, #20]
100003230: 71001d08    	subs	w8, w8, #7
100003234: 1a9fa7e8    	cset	w8, lt
100003238: b90013e8    	str	w8, [sp, #16]
10000323c: 14000001    	b	0x100003240 <_change_color+0x148>
100003240: b94013e8    	ldr	w8, [sp, #16]
100003244: 36000368    	tbz	w8, #0, 0x1000032b0 <_change_color+0x1b8>
100003248: 14000001    	b	0x10000324c <_change_color+0x154>
10000324c: f9400fe0    	ldr	x0, [sp, #24]
100003250: b98017e9    	ldrsw	x9, [sp, #20]
100003254: b0000028    	adrp	x8, 0x100008000 <_change_color+0x170>
100003258: 9100e108    	add	x8, x8, #56
10000325c: f8697901    	ldr	x1, [x8, x9, lsl #3]
100003260: d2800802    	mov	x2, #64
100003264: 940001da    	bl	0x1000039cc <_waitpid+0x1000039cc>
100003268: 71000008    	subs	w8, w0, #0
10000326c: 1a9f07e8    	cset	w8, ne
100003270: 37000168    	tbnz	w8, #0, 0x10000329c <_change_color+0x1a4>
100003274: 14000001    	b	0x100003278 <_change_color+0x180>
100003278: b98017e9    	ldrsw	x9, [sp, #20]
10000327c: b0000028    	adrp	x8, 0x100008000 <_change_color+0x198>
100003280: 91000108    	add	x8, x8, #0
100003284: f8697908    	ldr	x8, [x8, x9, lsl #3]
100003288: b0000029    	adrp	x9, 0x100008000 <_change_color+0x1a4>
10000328c: f9003928    	str	x8, [x9, #112]
100003290: 52800028    	mov	w8, #1
100003294: 381f33a8    	sturb	w8, [x29, #-13]
100003298: 14000001    	b	0x10000329c <_change_color+0x1a4>
10000329c: 14000001    	b	0x1000032a0 <_change_color+0x1a8>
1000032a0: b94017e8    	ldr	w8, [sp, #20]
1000032a4: 11000508    	add	w8, w8, #1
1000032a8: b90017e8    	str	w8, [sp, #20]
1000032ac: 17ffffdb    	b	0x100003218 <_change_color+0x120>
1000032b0: 385f33a8    	ldurb	w8, [x29, #-13]
1000032b4: 370000c8    	tbnz	w8, #0, 0x1000032cc <_change_color+0x1d4>
1000032b8: 14000001    	b	0x1000032bc <_change_color+0x1c4>
1000032bc: 90000000    	adrp	x0, 0x100003000 <_change_color+0x1c4>
1000032c0: 91330400    	add	x0, x0, #3265
1000032c4: 940001b6    	bl	0x10000399c <_waitpid+0x10000399c>
1000032c8: 14000001    	b	0x1000032cc <_change_color+0x1d4>
1000032cc: 14000001    	b	0x1000032d0 <_change_color+0x1d8>
1000032d0: 14000001    	b	0x1000032d4 <_change_color+0x1dc>
1000032d4: 52800020    	mov	w0, #1
1000032d8: a9437bfd    	ldp	x29, x30, [sp, #48]
1000032dc: 910103ff    	add	sp, sp, #64
1000032e0: d65f03c0    	ret

00000001000032e4 <_lsh_num_builtins>:
1000032e4: 52800080    	mov	w0, #4
1000032e8: d65f03c0    	ret

00000001000032ec <_toUpper>:
1000032ec: d10083ff    	sub	sp, sp, #32
1000032f0: a9017bfd    	stp	x29, x30, [sp, #16]
1000032f4: 910043fd    	add	x29, sp, #16
1000032f8: f90007e0    	str	x0, [sp, #8]
1000032fc: 14000001    	b	0x100003300 <_toUpper+0x14>
100003300: f94007e8    	ldr	x8, [sp, #8]
100003304: 39400108    	ldrb	w8, [x8]
100003308: 71000108    	subs	w8, w8, #0
10000330c: 1a9f17e8    	cset	w8, eq
100003310: 37000168    	tbnz	w8, #0, 0x10000333c <_toUpper+0x50>
100003314: 14000001    	b	0x100003318 <_toUpper+0x2c>
100003318: f94007e8    	ldr	x8, [sp, #8]
10000331c: 39c00100    	ldrsb	w0, [x8]
100003320: 940001b7    	bl	0x1000039fc <_waitpid+0x1000039fc>
100003324: f94007e8    	ldr	x8, [sp, #8]
100003328: 39000100    	strb	w0, [x8]
10000332c: f94007e8    	ldr	x8, [sp, #8]
100003330: 91000508    	add	x8, x8, #1
100003334: f90007e8    	str	x8, [sp, #8]
100003338: 17fffff2    	b	0x100003300 <_toUpper+0x14>
10000333c: a9417bfd    	ldp	x29, x30, [sp, #16]
100003340: 910083ff    	add	sp, sp, #32
100003344: d65f03c0    	ret

0000000100003348 <_lsh_launch>:
100003348: d100c3ff    	sub	sp, sp, #48
10000334c: a9027bfd    	stp	x29, x30, [sp, #32]
100003350: 910083fd    	add	x29, sp, #32
100003354: f81f83a0    	stur	x0, [x29, #-8]
100003358: 94000173    	bl	0x100003924 <_waitpid+0x100003924>
10000335c: b81f43a0    	stur	w0, [x29, #-12]
100003360: b85f43a8    	ldur	w8, [x29, #-12]
100003364: 71000108    	subs	w8, w8, #0
100003368: 1a9f07e8    	cset	w8, ne
10000336c: 37000208    	tbnz	w8, #0, 0x1000033ac <_lsh_launch+0x64>
100003370: 14000001    	b	0x100003374 <_lsh_launch+0x2c>
100003374: f85f83a8    	ldur	x8, [x29, #-8]
100003378: f9400100    	ldr	x0, [x8]
10000337c: f85f83a1    	ldur	x1, [x29, #-8]
100003380: 9400015d    	bl	0x1000038f4 <_waitpid+0x1000038f4>
100003384: 31000408    	adds	w8, w0, #1
100003388: 1a9f07e8    	cset	w8, ne
10000338c: 370000c8    	tbnz	w8, #0, 0x1000033a4 <_lsh_launch+0x5c>
100003390: 14000001    	b	0x100003394 <_lsh_launch+0x4c>
100003394: 90000000    	adrp	x0, 0x100003000 <_lsh_launch+0x4c>
100003398: 9130c000    	add	x0, x0, #3120
10000339c: 9400017a    	bl	0x100003984 <_waitpid+0x100003984>
1000033a0: 14000001    	b	0x1000033a4 <_lsh_launch+0x5c>
1000033a4: 52800020    	mov	w0, #1
1000033a8: 94000156    	bl	0x100003900 <_waitpid+0x100003900>
1000033ac: b85f43a8    	ldur	w8, [x29, #-12]
1000033b0: 71000108    	subs	w8, w8, #0
1000033b4: 1a9fb7e8    	cset	w8, ge
1000033b8: 370000c8    	tbnz	w8, #0, 0x1000033d0 <_lsh_launch+0x88>
1000033bc: 14000001    	b	0x1000033c0 <_lsh_launch+0x78>
1000033c0: 90000000    	adrp	x0, 0x100003000 <_lsh_launch+0x78>
1000033c4: 913b9400    	add	x0, x0, #3813
1000033c8: 9400016f    	bl	0x100003984 <_waitpid+0x100003984>
1000033cc: 14000024    	b	0x10000345c <_lsh_launch+0x114>
1000033d0: 14000001    	b	0x1000033d4 <_lsh_launch+0x8c>
1000033d4: b85f43a0    	ldur	w0, [x29, #-12]
1000033d8: 910033e1    	add	x1, sp, #12
1000033dc: 52800042    	mov	w2, #2
1000033e0: 9400018a    	bl	0x100003a08 <_waitpid+0x100003a08>
1000033e4: b90013e0    	str	w0, [sp, #16]
1000033e8: 14000001    	b	0x1000033ec <_lsh_launch+0xa4>
1000033ec: b9400fe8    	ldr	w8, [sp, #12]
1000033f0: 72001908    	ands	w8, w8, #0x7f
1000033f4: 1a9f17e8    	cset	w8, eq
1000033f8: 52800009    	mov	w9, #0
1000033fc: b9000be9    	str	w9, [sp, #8]
100003400: 37000268    	tbnz	w8, #0, 0x10000344c <_lsh_launch+0x104>
100003404: 14000001    	b	0x100003408 <_lsh_launch+0xc0>
100003408: b9400fe8    	ldr	w8, [sp, #12]
10000340c: 12001908    	and	w8, w8, #0x7f
100003410: 7101fd08    	subs	w8, w8, #127
100003414: 1a9f17e8    	cset	w8, eq
100003418: 52800009    	mov	w9, #0
10000341c: b90007e9    	str	w9, [sp, #4]
100003420: 370000e8    	tbnz	w8, #0, 0x10000343c <_lsh_launch+0xf4>
100003424: 14000001    	b	0x100003428 <_lsh_launch+0xe0>
100003428: b9400fe8    	ldr	w8, [sp, #12]
10000342c: 72001908    	ands	w8, w8, #0x7f
100003430: 1a9f07e8    	cset	w8, ne
100003434: b90007e8    	str	w8, [sp, #4]
100003438: 14000001    	b	0x10000343c <_lsh_launch+0xf4>
10000343c: b94007e8    	ldr	w8, [sp, #4]
100003440: 52000108    	eor	w8, w8, #0x1
100003444: b9000be8    	str	w8, [sp, #8]
100003448: 14000001    	b	0x10000344c <_lsh_launch+0x104>
10000344c: b9400be8    	ldr	w8, [sp, #8]
100003450: 3707fc28    	tbnz	w8, #0, 0x1000033d4 <_lsh_launch+0x8c>
100003454: 14000001    	b	0x100003458 <_lsh_launch+0x110>
100003458: 14000001    	b	0x10000345c <_lsh_launch+0x114>
10000345c: 14000001    	b	0x100003460 <_lsh_launch+0x118>
100003460: 52800020    	mov	w0, #1
100003464: a9427bfd    	ldp	x29, x30, [sp, #32]
100003468: 9100c3ff    	add	sp, sp, #48
10000346c: d65f03c0    	ret

0000000100003470 <_lsh_execute>:
100003470: d100c3ff    	sub	sp, sp, #48
100003474: a9027bfd    	stp	x29, x30, [sp, #32]
100003478: 910083fd    	add	x29, sp, #32
10000347c: f9000be0    	str	x0, [sp, #16]
100003480: f9400be8    	ldr	x8, [sp, #16]
100003484: f9400108    	ldr	x8, [x8]
100003488: f1000108    	subs	x8, x8, #0
10000348c: 1a9f07e8    	cset	w8, ne
100003490: 370000a8    	tbnz	w8, #0, 0x1000034a4 <_lsh_execute+0x34>
100003494: 14000001    	b	0x100003498 <_lsh_execute+0x28>
100003498: 52800028    	mov	w8, #1
10000349c: b81fc3a8    	stur	w8, [x29, #-4]
1000034a0: 14000027    	b	0x10000353c <_lsh_execute+0xcc>
1000034a4: b9000fff    	str	wzr, [sp, #12]
1000034a8: 14000001    	b	0x1000034ac <_lsh_execute+0x3c>
1000034ac: b9400fe8    	ldr	w8, [sp, #12]
1000034b0: b9000be8    	str	w8, [sp, #8]
1000034b4: 97ffff8c    	bl	0x1000032e4 <_lsh_num_builtins>
1000034b8: b9400be8    	ldr	w8, [sp, #8]
1000034bc: 6b000108    	subs	w8, w8, w0
1000034c0: 1a9fb7e8    	cset	w8, ge
1000034c4: 37000348    	tbnz	w8, #0, 0x10000352c <_lsh_execute+0xbc>
1000034c8: 14000001    	b	0x1000034cc <_lsh_execute+0x5c>
1000034cc: f9400be8    	ldr	x8, [sp, #16]
1000034d0: f9400100    	ldr	x0, [x8]
1000034d4: b9800fe9    	ldrsw	x9, [sp, #12]
1000034d8: b0000028    	adrp	x8, 0x100008000 <_lsh_execute+0x7c>
1000034dc: 9101e108    	add	x8, x8, #120
1000034e0: f8697901    	ldr	x1, [x8, x9, lsl #3]
1000034e4: 94000134    	bl	0x1000039b4 <_waitpid+0x1000039b4>
1000034e8: 71000008    	subs	w8, w0, #0
1000034ec: 1a9f07e8    	cset	w8, ne
1000034f0: 37000148    	tbnz	w8, #0, 0x100003518 <_lsh_execute+0xa8>
1000034f4: 14000001    	b	0x1000034f8 <_lsh_execute+0x88>
1000034f8: b9800fe9    	ldrsw	x9, [sp, #12]
1000034fc: b0000028    	adrp	x8, 0x100008000 <_lsh_execute+0xa0>
100003500: 91026108    	add	x8, x8, #152
100003504: f8697908    	ldr	x8, [x8, x9, lsl #3]
100003508: f9400be0    	ldr	x0, [sp, #16]
10000350c: d63f0100    	blr	x8
100003510: b81fc3a0    	stur	w0, [x29, #-4]
100003514: 1400000a    	b	0x10000353c <_lsh_execute+0xcc>
100003518: 14000001    	b	0x10000351c <_lsh_execute+0xac>
10000351c: b9400fe8    	ldr	w8, [sp, #12]
100003520: 11000508    	add	w8, w8, #1
100003524: b9000fe8    	str	w8, [sp, #12]
100003528: 17ffffe1    	b	0x1000034ac <_lsh_execute+0x3c>
10000352c: f9400be0    	ldr	x0, [sp, #16]
100003530: 97ffff86    	bl	0x100003348 <_lsh_launch>
100003534: b81fc3a0    	stur	w0, [x29, #-4]
100003538: 14000001    	b	0x10000353c <_lsh_execute+0xcc>
10000353c: b85fc3a0    	ldur	w0, [x29, #-4]
100003540: a9427bfd    	ldp	x29, x30, [sp, #32]
100003544: 9100c3ff    	add	sp, sp, #48
100003548: d65f03c0    	ret

000000010000354c <_lsh_current_dir>:
10000354c: d10143ff    	sub	sp, sp, #80
100003550: a9047bfd    	stp	x29, x30, [sp, #64]
100003554: 910103fd    	add	x29, sp, #64
100003558: 90000000    	adrp	x0, 0x100003000 <_lsh_current_dir+0xc>
10000355c: 913be000    	add	x0, x0, #3832
100003560: 90000001    	adrp	x1, 0x100003000 <_lsh_current_dir+0x14>
100003564: 913bf021    	add	x1, x1, #3836
100003568: 9400010a    	bl	0x100003990 <_waitpid+0x100003990>
10000356c: f81f83a0    	stur	x0, [x29, #-8]
100003570: f85f83a8    	ldur	x8, [x29, #-8]
100003574: f1000108    	subs	x8, x8, #0
100003578: 1a9f07e8    	cset	w8, ne
10000357c: 37000148    	tbnz	w8, #0, 0x1000035a4 <_lsh_current_dir+0x58>
100003580: 14000001    	b	0x100003584 <_lsh_current_dir+0x38>
100003584: b0000008    	adrp	x8, 0x100004000 <_lsh_current_dir+0x3c>
100003588: f9400d08    	ldr	x8, [x8, #24]
10000358c: f9400100    	ldr	x0, [x8]
100003590: 90000001    	adrp	x1, 0x100003000 <_lsh_current_dir+0x44>
100003594: 913bf821    	add	x1, x1, #3838
100003598: 940000e6    	bl	0x100003930 <_waitpid+0x100003930>
10000359c: 52800020    	mov	w0, #1
1000035a0: 940000d8    	bl	0x100003900 <_waitpid+0x100003900>
1000035a4: 14000001    	b	0x1000035a8 <_lsh_current_dir+0x5c>
1000035a8: f85f83a3    	ldur	x3, [x29, #-8]
1000035ac: b0000020    	adrp	x0, 0x100008000 <_lsh_current_dir+0x74>
1000035b0: 91034000    	add	x0, x0, #208
1000035b4: d2800021    	mov	x1, #1
1000035b8: d2807fe2    	mov	x2, #1023
1000035bc: 940000e0    	bl	0x10000393c <_waitpid+0x10000393c>
1000035c0: f81f03a0    	stur	x0, [x29, #-16]
1000035c4: f1000008    	subs	x8, x0, #0
1000035c8: 1a9f87e8    	cset	w8, ls
1000035cc: 37000108    	tbnz	w8, #0, 0x1000035ec <_lsh_current_dir+0xa0>
1000035d0: 14000001    	b	0x1000035d4 <_lsh_current_dir+0x88>
1000035d4: f85f03a9    	ldur	x9, [x29, #-16]
1000035d8: b0000028    	adrp	x8, 0x100008000 <_lsh_current_dir+0xa0>
1000035dc: 91034108    	add	x8, x8, #208
1000035e0: 8b090108    	add	x8, x8, x9
1000035e4: 3900011f    	strb	wzr, [x8]
1000035e8: 17fffff0    	b	0x1000035a8 <_lsh_current_dir+0x5c>
1000035ec: b81ec3bf    	stur	wzr, [x29, #-20]
1000035f0: 52800808    	mov	w8, #64
1000035f4: b81e83a8    	stur	w8, [x29, #-24]
1000035f8: 90000008    	adrp	x8, 0x100003000 <_lsh_current_dir+0xac>
1000035fc: 913c6908    	add	x8, x8, #3866
100003600: f9000be8    	str	x8, [sp, #16]
100003604: b89e83a8    	ldursw	x8, [x29, #-24]
100003608: d37df100    	lsl	x0, x8, #3
10000360c: 940000d8    	bl	0x10000396c <_waitpid+0x10000396c>
100003610: f90013e0    	str	x0, [sp, #32]
100003614: f9400be1    	ldr	x1, [sp, #16]
100003618: b0000020    	adrp	x0, 0x100008000 <_lsh_current_dir+0xe0>
10000361c: 91034000    	add	x0, x0, #208
100003620: 940000ee    	bl	0x1000039d8 <_waitpid+0x1000039d8>
100003624: f9000fe0    	str	x0, [sp, #24]
100003628: 14000001    	b	0x10000362c <_lsh_current_dir+0xe0>
10000362c: f9400fe8    	ldr	x8, [sp, #24]
100003630: f1000108    	subs	x8, x8, #0
100003634: 1a9f17e8    	cset	w8, eq
100003638: 37000568    	tbnz	w8, #0, 0x1000036e4 <_lsh_current_dir+0x198>
10000363c: 14000001    	b	0x100003640 <_lsh_current_dir+0xf4>
100003640: f9400fe8    	ldr	x8, [sp, #24]
100003644: f94013e9    	ldr	x9, [sp, #32]
100003648: b89ec3aa    	ldursw	x10, [x29, #-20]
10000364c: aa0a03eb    	mov	x11, x10
100003650: 1100056b    	add	w11, w11, #1
100003654: b81ec3ab    	stur	w11, [x29, #-20]
100003658: f82a7928    	str	x8, [x9, x10, lsl #3]
10000365c: b85ec3a8    	ldur	w8, [x29, #-20]
100003660: b85e83a9    	ldur	w9, [x29, #-24]
100003664: 6b090108    	subs	w8, w8, w9
100003668: 1a9fa7e8    	cset	w8, lt
10000366c: 37000308    	tbnz	w8, #0, 0x1000036cc <_lsh_current_dir+0x180>
100003670: 14000001    	b	0x100003674 <_lsh_current_dir+0x128>
100003674: b85e83a8    	ldur	w8, [x29, #-24]
100003678: 11010108    	add	w8, w8, #64
10000367c: b81e83a8    	stur	w8, [x29, #-24]
100003680: f94013e0    	ldr	x0, [sp, #32]
100003684: b89e83a8    	ldursw	x8, [x29, #-24]
100003688: d37df101    	lsl	x1, x8, #3
10000368c: 940000c7    	bl	0x1000039a8 <_waitpid+0x1000039a8>
100003690: f90013e0    	str	x0, [sp, #32]
100003694: f94013e8    	ldr	x8, [sp, #32]
100003698: f1000108    	subs	x8, x8, #0
10000369c: 1a9f07e8    	cset	w8, ne
1000036a0: 37000148    	tbnz	w8, #0, 0x1000036c8 <_lsh_current_dir+0x17c>
1000036a4: 14000001    	b	0x1000036a8 <_lsh_current_dir+0x15c>
1000036a8: b0000008    	adrp	x8, 0x100004000 <_lsh_current_dir+0x160>
1000036ac: f9400d08    	ldr	x8, [x8, #24]
1000036b0: f9400100    	ldr	x0, [x8]
1000036b4: 90000001    	adrp	x1, 0x100003000 <_lsh_current_dir+0x168>
1000036b8: 913c7021    	add	x1, x1, #3868
1000036bc: 9400009d    	bl	0x100003930 <_waitpid+0x100003930>
1000036c0: 52800020    	mov	w0, #1
1000036c4: 9400008f    	bl	0x100003900 <_waitpid+0x100003900>
1000036c8: 14000001    	b	0x1000036cc <_lsh_current_dir+0x180>
1000036cc: d2800000    	mov	x0, #0
1000036d0: 90000001    	adrp	x1, 0x100003000 <_lsh_current_dir+0x184>
1000036d4: 913c6821    	add	x1, x1, #3866
1000036d8: 940000c0    	bl	0x1000039d8 <_waitpid+0x1000039d8>
1000036dc: f9000fe0    	str	x0, [sp, #24]
1000036e0: 17ffffd3    	b	0x10000362c <_lsh_current_dir+0xe0>
1000036e4: f85f83a0    	ldur	x0, [x29, #-8]
1000036e8: 940000a4    	bl	0x100003978 <_waitpid+0x100003978>
1000036ec: 71000008    	subs	w8, w0, #0
1000036f0: 1a9fb7e8    	cset	w8, ge
1000036f4: 370000c8    	tbnz	w8, #0, 0x10000370c <_lsh_current_dir+0x1c0>
1000036f8: 14000001    	b	0x1000036fc <_lsh_current_dir+0x1b0>
1000036fc: 90000000    	adrp	x0, 0x100003000 <_lsh_current_dir+0x1b0>
100003700: 913d1c00    	add	x0, x0, #3911
100003704: 940000a0    	bl	0x100003984 <_waitpid+0x100003984>
100003708: 14000001    	b	0x10000370c <_lsh_current_dir+0x1c0>
10000370c: f94013e8    	ldr	x8, [sp, #32]
100003710: b85ec3a9    	ldur	w9, [x29, #-20]
100003714: 71000529    	subs	w9, w9, #1
100003718: f869d908    	ldr	x8, [x8, w9, sxtw #3]
10000371c: f90007e8    	str	x8, [sp, #8]
100003720: f94007e8    	ldr	x8, [sp, #8]
100003724: f90003e8    	str	x8, [sp]
100003728: f94007e0    	ldr	x0, [sp, #8]
10000372c: 940000a5    	bl	0x1000039c0 <_waitpid+0x1000039c0>
100003730: f94003e8    	ldr	x8, [sp]
100003734: f1000409    	subs	x9, x0, #1
100003738: 8b090108    	add	x8, x8, x9
10000373c: 3900011f    	strb	wzr, [x8]
100003740: f94007e0    	ldr	x0, [sp, #8]
100003744: a9447bfd    	ldp	x29, x30, [sp, #64]
100003748: 910143ff    	add	sp, sp, #80
10000374c: d65f03c0    	ret

0000000100003750 <_lsh_loop>:
100003750: d10203ff    	sub	sp, sp, #128
100003754: a9077bfd    	stp	x29, x30, [sp, #112]
100003758: 9101c3fd    	add	x29, sp, #112
10000375c: 9100e3e0    	add	x0, sp, #56
100003760: 97fff99e    	bl	0x100001dd8 <_init_hist>
100003764: 14000001    	b	0x100003768 <_lsh_loop+0x18>
100003768: 97ffff79    	bl	0x10000354c <_lsh_current_dir>
10000376c: f81e03a0    	stur	x0, [x29, #-32]
100003770: b0000028    	adrp	x8, 0x100008000 <_lsh_loop+0x34>
100003774: f940390a    	ldr	x10, [x8, #112]
100003778: f85e03a8    	ldur	x8, [x29, #-32]
10000377c: 910003e9    	mov	x9, sp
100003780: f900012a    	str	x10, [x9]
100003784: f9000528    	str	x8, [x9, #8]
100003788: 90000008    	adrp	x8, 0x100003000 <_lsh_loop+0x38>
10000378c: 913db508    	add	x8, x8, #3949
100003790: f9000928    	str	x8, [x9, #16]
100003794: 90000000    	adrp	x0, 0x100003000 <_lsh_loop+0x44>
100003798: 913d8c00    	add	x0, x0, #3939
10000379c: 94000080    	bl	0x10000399c <_waitpid+0x10000399c>
1000037a0: f85e03a3    	ldur	x3, [x29, #-32]
1000037a4: d10023a0    	sub	x0, x29, #8
1000037a8: 52803e81    	mov	w1, #500
1000037ac: 9100e3e2    	add	x2, sp, #56
1000037b0: 97fffc11    	bl	0x1000027f4 <_dynamic_read_line>
1000037b4: f85f83a0    	ldur	x0, [x29, #-8]
1000037b8: 94000082    	bl	0x1000039c0 <_waitpid+0x1000039c0>
1000037bc: d2800028    	mov	x8, #1
1000037c0: 9b007d00    	mul	x0, x8, x0
1000037c4: 9400006a    	bl	0x10000396c <_waitpid+0x10000396c>
1000037c8: f9001be0    	str	x0, [sp, #48]
1000037cc: f9401be8    	ldr	x8, [sp, #48]
1000037d0: f90017e8    	str	x8, [sp, #40]
1000037d4: f85f83a8    	ldur	x8, [x29, #-8]
1000037d8: f90013e8    	str	x8, [sp, #32]
1000037dc: f85f83a0    	ldur	x0, [x29, #-8]
1000037e0: 94000078    	bl	0x1000039c0 <_waitpid+0x1000039c0>
1000037e4: f94013e1    	ldr	x1, [sp, #32]
1000037e8: aa0003e2    	mov	x2, x0
1000037ec: f94017e0    	ldr	x0, [sp, #40]
1000037f0: 92800003    	mov	x3, #-1
1000037f4: 94000034    	bl	0x1000038c4 <_waitpid+0x1000038c4>
1000037f8: 90000000    	adrp	x0, 0x100003000 <_lsh_loop+0xa8>
1000037fc: 9132fc00    	add	x0, x0, #3263
100003800: 94000067    	bl	0x10000399c <_waitpid+0x10000399c>
100003804: f85f83a0    	ldur	x0, [x29, #-8]
100003808: 97fffdae    	bl	0x100002ec0 <_lsh_split_line>
10000380c: f81f03a0    	stur	x0, [x29, #-16]
100003810: f85f03a0    	ldur	x0, [x29, #-16]
100003814: 97ffff17    	bl	0x100003470 <_lsh_execute>
100003818: b81ec3a0    	stur	w0, [x29, #-20]
10000381c: b85ec3a8    	ldur	w8, [x29, #-20]
100003820: 71000108    	subs	w8, w8, #0
100003824: 1a9f17e8    	cset	w8, eq
100003828: 370000c8    	tbnz	w8, #0, 0x100003840 <_lsh_loop+0xf0>
10000382c: 14000001    	b	0x100003830 <_lsh_loop+0xe0>
100003830: f9401be1    	ldr	x1, [sp, #48]
100003834: 9100e3e0    	add	x0, sp, #56
100003838: 97fff973    	bl	0x100001e04 <_add>
10000383c: 14000001    	b	0x100003840 <_lsh_loop+0xf0>
100003840: f9401be0    	ldr	x0, [sp, #48]
100003844: 94000041    	bl	0x100003948 <_waitpid+0x100003948>
100003848: f85f83a0    	ldur	x0, [x29, #-8]
10000384c: 9400003f    	bl	0x100003948 <_waitpid+0x100003948>
100003850: f85f03a0    	ldur	x0, [x29, #-16]
100003854: 9400003d    	bl	0x100003948 <_waitpid+0x100003948>
100003858: 90000000    	adrp	x0, 0x100003000 <_lsh_loop+0x108>
10000385c: 913dc800    	add	x0, x0, #3954
100003860: 9400004f    	bl	0x10000399c <_waitpid+0x10000399c>
100003864: 14000001    	b	0x100003868 <_lsh_loop+0x118>
100003868: b85ec3a8    	ldur	w8, [x29, #-20]
10000386c: 71000108    	subs	w8, w8, #0
100003870: 1a9f07e8    	cset	w8, ne
100003874: 3707f7a8    	tbnz	w8, #0, 0x100003768 <_lsh_loop+0x18>
100003878: 14000001    	b	0x10000387c <_lsh_loop+0x12c>
10000387c: a9477bfd    	ldp	x29, x30, [sp, #112]
100003880: 910203ff    	add	sp, sp, #128
100003884: d65f03c0    	ret

0000000100003888 <_main>:
100003888: d100c3ff    	sub	sp, sp, #48
10000388c: a9027bfd    	stp	x29, x30, [sp, #32]
100003890: 910083fd    	add	x29, sp, #32
100003894: 52800008    	mov	w8, #0
100003898: b9000fe8    	str	w8, [sp, #12]
10000389c: b81fc3bf    	stur	wzr, [x29, #-4]
1000038a0: b81f83a0    	stur	w0, [x29, #-8]
1000038a4: f9000be1    	str	x1, [sp, #16]
1000038a8: 97fffb93    	bl	0x1000026f4 <_turn_off_echo>
1000038ac: 97ffffa9    	bl	0x100003750 <_lsh_loop>
1000038b0: 97fffbb1    	bl	0x100002774 <_turn_on_echo>
1000038b4: b9400fe0    	ldr	w0, [sp, #12]
1000038b8: a9427bfd    	ldp	x29, x30, [sp, #32]
1000038bc: 9100c3ff    	add	sp, sp, #48
1000038c0: d65f03c0    	ret

Disassembly of section __TEXT,__stubs:

00000001000038c4 <__stubs>:
1000038c4: b0000010    	adrp	x16, 0x100004000 <__stubs+0x4>
1000038c8: f9400210    	ldr	x16, [x16]
1000038cc: d61f0200    	br	x16
1000038d0: b0000010    	adrp	x16, 0x100004000 <__stubs+0x10>
1000038d4: f9400610    	ldr	x16, [x16, #8]
1000038d8: d61f0200    	br	x16
1000038dc: b0000010    	adrp	x16, 0x100004000 <__stubs+0x1c>
1000038e0: f9401a10    	ldr	x16, [x16, #48]
1000038e4: d61f0200    	br	x16
1000038e8: b0000010    	adrp	x16, 0x100004000 <__stubs+0x28>
1000038ec: f9401e10    	ldr	x16, [x16, #56]
1000038f0: d61f0200    	br	x16
1000038f4: b0000010    	adrp	x16, 0x100004000 <__stubs+0x34>
1000038f8: f9402210    	ldr	x16, [x16, #64]
1000038fc: d61f0200    	br	x16
100003900: b0000010    	adrp	x16, 0x100004000 <__stubs+0x40>
100003904: f9402610    	ldr	x16, [x16, #72]
100003908: d61f0200    	br	x16
10000390c: b0000010    	adrp	x16, 0x100004000 <__stubs+0x4c>
100003910: f9402a10    	ldr	x16, [x16, #80]
100003914: d61f0200    	br	x16
100003918: b0000010    	adrp	x16, 0x100004000 <__stubs+0x58>
10000391c: f9402e10    	ldr	x16, [x16, #88]
100003920: d61f0200    	br	x16
100003924: b0000010    	adrp	x16, 0x100004000 <__stubs+0x64>
100003928: f9403210    	ldr	x16, [x16, #96]
10000392c: d61f0200    	br	x16
100003930: b0000010    	adrp	x16, 0x100004000 <__stubs+0x70>
100003934: f9403610    	ldr	x16, [x16, #104]
100003938: d61f0200    	br	x16
10000393c: b0000010    	adrp	x16, 0x100004000 <__stubs+0x7c>
100003940: f9403a10    	ldr	x16, [x16, #112]
100003944: d61f0200    	br	x16
100003948: b0000010    	adrp	x16, 0x100004000 <__stubs+0x88>
10000394c: f9403e10    	ldr	x16, [x16, #120]
100003950: d61f0200    	br	x16
100003954: b0000010    	adrp	x16, 0x100004000 <__stubs+0x94>
100003958: f9404210    	ldr	x16, [x16, #128]
10000395c: d61f0200    	br	x16
100003960: b0000010    	adrp	x16, 0x100004000 <__stubs+0xa0>
100003964: f9404610    	ldr	x16, [x16, #136]
100003968: d61f0200    	br	x16
10000396c: b0000010    	adrp	x16, 0x100004000 <__stubs+0xac>
100003970: f9404a10    	ldr	x16, [x16, #144]
100003974: d61f0200    	br	x16
100003978: b0000010    	adrp	x16, 0x100004000 <__stubs+0xb8>
10000397c: f9404e10    	ldr	x16, [x16, #152]
100003980: d61f0200    	br	x16
100003984: b0000010    	adrp	x16, 0x100004000 <__stubs+0xc4>
100003988: f9405210    	ldr	x16, [x16, #160]
10000398c: d61f0200    	br	x16
100003990: b0000010    	adrp	x16, 0x100004000 <__stubs+0xd0>
100003994: f9405610    	ldr	x16, [x16, #168]
100003998: d61f0200    	br	x16
10000399c: b0000010    	adrp	x16, 0x100004000 <__stubs+0xdc>
1000039a0: f9405a10    	ldr	x16, [x16, #176]
1000039a4: d61f0200    	br	x16
1000039a8: b0000010    	adrp	x16, 0x100004000 <__stubs+0xe8>
1000039ac: f9405e10    	ldr	x16, [x16, #184]
1000039b0: d61f0200    	br	x16
1000039b4: b0000010    	adrp	x16, 0x100004000 <__stubs+0xf4>
1000039b8: f9406210    	ldr	x16, [x16, #192]
1000039bc: d61f0200    	br	x16
1000039c0: b0000010    	adrp	x16, 0x100004000 <__stubs+0x100>
1000039c4: f9406610    	ldr	x16, [x16, #200]
1000039c8: d61f0200    	br	x16
1000039cc: b0000010    	adrp	x16, 0x100004000 <__stubs+0x10c>
1000039d0: f9406a10    	ldr	x16, [x16, #208]
1000039d4: d61f0200    	br	x16
1000039d8: b0000010    	adrp	x16, 0x100004000 <__stubs+0x118>
1000039dc: f9406e10    	ldr	x16, [x16, #216]
1000039e0: d61f0200    	br	x16
1000039e4: b0000010    	adrp	x16, 0x100004000 <__stubs+0x124>
1000039e8: f9407210    	ldr	x16, [x16, #224]
1000039ec: d61f0200    	br	x16
1000039f0: b0000010    	adrp	x16, 0x100004000 <__stubs+0x130>
1000039f4: f9407610    	ldr	x16, [x16, #232]
1000039f8: d61f0200    	br	x16
1000039fc: b0000010    	adrp	x16, 0x100004000 <__stubs+0x13c>
100003a00: f9407a10    	ldr	x16, [x16, #240]
100003a04: d61f0200    	br	x16
100003a08: b0000010    	adrp	x16, 0x100004000 <__stubs+0x148>
100003a0c: f9407e10    	ldr	x16, [x16, #248]
100003a10: d61f0200    	br	x16
